

Microchip Technology PIC LITE Macro Assembler V2.00 build -1524193055 
                                                                                               Tue Sep 11 01:44:35 2018

Microchip Technology Omniscient Code Generator v2.00 (Free mode) build 20180527130849
     1                           	processor	16F15355
     2                           	opt	pw 120
     3                           	opt	lm
     4                           	psect	nvBANK0,global,class=BANK0,space=1,delta=1
     5                           	psect	cinit,global,class=CODE,merge=1,delta=2
     6                           	psect	bssBANK0,global,class=BANK0,space=1,delta=1
     7                           	psect	clrtext,global,class=CODE,delta=2
     8                           	psect	cstackCOMMON,global,class=COMMON,space=1,delta=1
     9                           	psect	cstackBANK0,global,class=BANK0,space=1,delta=1
    10                           	psect	maintext,global,class=CODE,merge=1,split=1,delta=2
    11                           	psect	text1,local,class=CODE,merge=1,delta=2
    12                           	psect	text2,local,class=CODE,merge=1,delta=2
    13                           	psect	text3,local,class=CODE,merge=1,delta=2
    14                           	psect	text4,local,class=CODE,merge=1,delta=2
    15                           	psect	text5,local,class=CODE,merge=1,delta=2
    16                           	psect	text6,local,class=CODE,merge=1,delta=2
    17                           	psect	text7,local,class=CODE,merge=1,delta=2
    18                           	psect	text8,local,class=CODE,merge=1,delta=2
    19                           	psect	text9,local,class=CODE,merge=1,delta=2
    20                           	psect	text10,local,class=CODE,merge=1,delta=2
    21                           	psect	text11,local,class=CODE,merge=1,delta=2
    22                           	psect	text12,local,class=CODE,merge=1,delta=2
    23                           	psect	text13,local,class=CODE,merge=1,delta=2,group=1
    24                           	psect	text14,local,class=CODE,merge=1,delta=2,group=1
    25                           	psect	text15,local,class=CODE,merge=1,delta=2,group=1
    26                           	psect	intentry,global,class=CODE,delta=2
    27                           	dabs	1,0x7E,2
    28  0000                     
    29                           ; Version 2.00
    30                           ; Generated 27/05/2018 GMT
    31                           ; 
    32                           ; Copyright © 2018, Microchip Technology Inc. and its subsidiaries ("Microchip")
    33                           ; All rights reserved.
    34                           ; 
    35                           ; This software is developed by Microchip Technology Inc. and its subsidiaries ("Microch
      +                          ip").
    36                           ; 
    37                           ; Redistribution and use in source and binary forms, with or without modification, are
    38                           ; permitted provided that the following conditions are met:
    39                           ; 
    40                           ;     1. Redistributions of source code must retain the above copyright notice, this lis
      +                          t of
    41                           ;        conditions and the following disclaimer.
    42                           ; 
    43                           ;     2. Redistributions in binary form must reproduce the above copyright notice, this 
      +                          list
    44                           ;        of conditions and the following disclaimer in the documentation and/or other
    45                           ;        materials provided with the distribution.
    46                           ; 
    47                           ;     3. Microchip's name may not be used to endorse or promote products derived from th
      +                          is
    48                           ;        software without specific prior written permission.
    49                           ; 
    50                           ; THIS SOFTWARE IS PROVIDED BY MICROCHIP "AS IS" AND ANY EXPRESS OR IMPLIED WARRANTIES,
    51                           ; INCLUDING, BUT NOT LIMITED TO, THE IMPLIED WARRANTIES OF MERCHANTABILITY AND FITNESS F
      +                          OR
    52                           ; PURPOSE ARE DISCLAIMED.  IN NO EVENT SHALL MICROCHIP BE LIABLE FOR ANY DIRECT, INDIREC
      +                          T,
    53                           ; INCIDENTAL, SPECIAL, EXEMPLARY, OR CONSEQUENTIAL DAMAGES (INCLUDING BUT NOT LIMITED TO
    54                           ; PROCUREMENT OF SUBSTITUTE GOODS OR SERVICES; LOSS OF USE, DATA OR PROFITS; OR BUSINESS
    55                           ; INTERRUPTION) HOWSOEVER CAUSED AND ON ANY THEORY OF LIABILITY, WHETHER IN CONTRACT, ST
      +                          RICT
    56                           ; LIABILITY, OR TORT (INCLUDING NEGLIGENCE OR OTHERWISE) ARISING IN ANY WAY OUT OF THE U
      +                          SE OF
    57                           ; THIS SOFTWARE, EVEN IF ADVISED OF THE POSSIBILITY OF SUCH DAMAGE.
    58                           ; 
    59                           ; 
    60                           ; Code-generator required, PIC16F15355 Definitions
    61                           ; 
    62                           ; SFR Addresses
    63  0000                     	;# 
    64  0001                     	;# 
    65  0002                     	;# 
    66  0003                     	;# 
    67  0004                     	;# 
    68  0005                     	;# 
    69  0006                     	;# 
    70  0007                     	;# 
    71  0008                     	;# 
    72  0009                     	;# 
    73  000A                     	;# 
    74  000B                     	;# 
    75  000C                     	;# 
    76  000D                     	;# 
    77  000E                     	;# 
    78  0010                     	;# 
    79  0012                     	;# 
    80  0013                     	;# 
    81  0014                     	;# 
    82  0016                     	;# 
    83  0018                     	;# 
    84  0019                     	;# 
    85  001A                     	;# 
    86  009B                     	;# 
    87  009B                     	;# 
    88  009C                     	;# 
    89  009D                     	;# 
    90  009E                     	;# 
    91  009F                     	;# 
    92  0119                     	;# 
    93  0119                     	;# 
    94  0119                     	;# 
    95  011A                     	;# 
    96  011A                     	;# 
    97  011A                     	;# 
    98  011B                     	;# 
    99  011B                     	;# 
   100  011B                     	;# 
   101  011B                     	;# 
   102  011B                     	;# 
   103  011C                     	;# 
   104  011C                     	;# 
   105  011C                     	;# 
   106  011D                     	;# 
   107  011D                     	;# 
   108  011D                     	;# 
   109  011E                     	;# 
   110  011E                     	;# 
   111  011E                     	;# 
   112  011F                     	;# 
   113  011F                     	;# 
   114  011F                     	;# 
   115  011F                     	;# 
   116  011F                     	;# 
   117  018C                     	;# 
   118  018D                     	;# 
   119  018E                     	;# 
   120  018F                     	;# 
   121  0190                     	;# 
   122  0191                     	;# 
   123  0192                     	;# 
   124  0196                     	;# 
   125  0197                     	;# 
   126  0198                     	;# 
   127  0199                     	;# 
   128  019A                     	;# 
   129  019B                     	;# 
   130  019C                     	;# 
   131  020C                     	;# 
   132  020C                     	;# 
   133  020D                     	;# 
   134  020E                     	;# 
   135  020F                     	;# 
   136  020F                     	;# 
   137  0210                     	;# 
   138  0210                     	;# 
   139  0211                     	;# 
   140  0211                     	;# 
   141  028C                     	;# 
   142  028C                     	;# 
   143  028D                     	;# 
   144  028D                     	;# 
   145  028E                     	;# 
   146  028F                     	;# 
   147  0290                     	;# 
   148  0291                     	;# 
   149  030C                     	;# 
   150  030C                     	;# 
   151  030D                     	;# 
   152  030E                     	;# 
   153  030F                     	;# 
   154  0310                     	;# 
   155  0310                     	;# 
   156  0311                     	;# 
   157  0312                     	;# 
   158  0313                     	;# 
   159  0314                     	;# 
   160  0314                     	;# 
   161  0315                     	;# 
   162  0316                     	;# 
   163  0318                     	;# 
   164  0318                     	;# 
   165  0319                     	;# 
   166  031A                     	;# 
   167  031C                     	;# 
   168  031C                     	;# 
   169  031D                     	;# 
   170  031E                     	;# 
   171  038C                     	;# 
   172  038C                     	;# 
   173  038D                     	;# 
   174  038E                     	;# 
   175  058C                     	;# 
   176  058C                     	;# 
   177  058D                     	;# 
   178  058E                     	;# 
   179  058F                     	;# 
   180  058F                     	;# 
   181  0590                     	;# 
   182  0591                     	;# 
   183  0592                     	;# 
   184  0593                     	;# 
   185  059C                     	;# 
   186  059C                     	;# 
   187  059D                     	;# 
   188  059D                     	;# 
   189  059E                     	;# 
   190  059F                     	;# 
   191  060C                     	;# 
   192  060D                     	;# 
   193  060E                     	;# 
   194  060F                     	;# 
   195  0610                     	;# 
   196  0611                     	;# 
   197  0612                     	;# 
   198  0613                     	;# 
   199  0614                     	;# 
   200  070C                     	;# 
   201  070D                     	;# 
   202  070E                     	;# 
   203  070F                     	;# 
   204  0710                     	;# 
   205  0711                     	;# 
   206  0712                     	;# 
   207  0713                     	;# 
   208  0716                     	;# 
   209  0717                     	;# 
   210  0718                     	;# 
   211  0719                     	;# 
   212  071A                     	;# 
   213  071B                     	;# 
   214  071C                     	;# 
   215  071D                     	;# 
   216  0796                     	;# 
   217  0797                     	;# 
   218  0798                     	;# 
   219  0799                     	;# 
   220  079A                     	;# 
   221  079B                     	;# 
   222  080C                     	;# 
   223  080D                     	;# 
   224  080E                     	;# 
   225  080F                     	;# 
   226  0810                     	;# 
   227  0811                     	;# 
   228  0812                     	;# 
   229  0813                     	;# 
   230  0814                     	;# 
   231  081A                     	;# 
   232  081A                     	;# 
   233  081B                     	;# 
   234  081C                     	;# 
   235  081C                     	;# 
   236  081D                     	;# 
   237  081E                     	;# 
   238  081F                     	;# 
   239  088C                     	;# 
   240  088D                     	;# 
   241  088E                     	;# 
   242  088F                     	;# 
   243  0890                     	;# 
   244  0891                     	;# 
   245  0892                     	;# 
   246  0893                     	;# 
   247  0895                     	;# 
   248  0896                     	;# 
   249  090C                     	;# 
   250  090E                     	;# 
   251  090F                     	;# 
   252  091F                     	;# 
   253  098F                     	;# 
   254  098F                     	;# 
   255  0990                     	;# 
   256  0991                     	;# 
   257  0992                     	;# 
   258  0993                     	;# 
   259  0994                     	;# 
   260  0995                     	;# 
   261  0996                     	;# 
   262  0997                     	;# 
   263  0A19                     	;# 
   264  0A19                     	;# 
   265  0A1A                     	;# 
   266  0A1A                     	;# 
   267  0A1B                     	;# 
   268  0A1B                     	;# 
   269  0A1B                     	;# 
   270  0A1C                     	;# 
   271  0A1C                     	;# 
   272  0A1D                     	;# 
   273  0A1D                     	;# 
   274  0A1E                     	;# 
   275  0A1E                     	;# 
   276  0A1F                     	;# 
   277  0A1F                     	;# 
   278  0A1F                     	;# 
   279  1E0F                     	;# 
   280  1E10                     	;# 
   281  1E11                     	;# 
   282  1E12                     	;# 
   283  1E13                     	;# 
   284  1E14                     	;# 
   285  1E15                     	;# 
   286  1E16                     	;# 
   287  1E17                     	;# 
   288  1E18                     	;# 
   289  1E19                     	;# 
   290  1E1A                     	;# 
   291  1E1B                     	;# 
   292  1E1C                     	;# 
   293  1E1D                     	;# 
   294  1E1E                     	;# 
   295  1E1F                     	;# 
   296  1E20                     	;# 
   297  1E21                     	;# 
   298  1E22                     	;# 
   299  1E23                     	;# 
   300  1E24                     	;# 
   301  1E25                     	;# 
   302  1E26                     	;# 
   303  1E27                     	;# 
   304  1E28                     	;# 
   305  1E29                     	;# 
   306  1E2A                     	;# 
   307  1E2B                     	;# 
   308  1E2C                     	;# 
   309  1E2D                     	;# 
   310  1E2E                     	;# 
   311  1E2F                     	;# 
   312  1E30                     	;# 
   313  1E31                     	;# 
   314  1E32                     	;# 
   315  1E33                     	;# 
   316  1E34                     	;# 
   317  1E35                     	;# 
   318  1E36                     	;# 
   319  1E37                     	;# 
   320  1E8F                     	;# 
   321  1E90                     	;# 
   322  1E91                     	;# 
   323  1E92                     	;# 
   324  1E93                     	;# 
   325  1E9C                     	;# 
   326  1EA1                     	;# 
   327  1EA2                     	;# 
   328  1EB1                     	;# 
   329  1EBB                     	;# 
   330  1EBC                     	;# 
   331  1EBD                     	;# 
   332  1EBE                     	;# 
   333  1EC3                     	;# 
   334  1EC5                     	;# 
   335  1EC6                     	;# 
   336  1EC7                     	;# 
   337  1EC8                     	;# 
   338  1EC9                     	;# 
   339  1ECA                     	;# 
   340  1ECB                     	;# 
   341  1ECC                     	;# 
   342  1ECD                     	;# 
   343  1ECE                     	;# 
   344  1F10                     	;# 
   345  1F11                     	;# 
   346  1F12                     	;# 
   347  1F13                     	;# 
   348  1F14                     	;# 
   349  1F15                     	;# 
   350  1F16                     	;# 
   351  1F17                     	;# 
   352  1F18                     	;# 
   353  1F19                     	;# 
   354  1F1A                     	;# 
   355  1F1B                     	;# 
   356  1F1C                     	;# 
   357  1F1D                     	;# 
   358  1F1E                     	;# 
   359  1F1F                     	;# 
   360  1F20                     	;# 
   361  1F21                     	;# 
   362  1F22                     	;# 
   363  1F23                     	;# 
   364  1F24                     	;# 
   365  1F25                     	;# 
   366  1F26                     	;# 
   367  1F27                     	;# 
   368  1F38                     	;# 
   369  1F39                     	;# 
   370  1F3A                     	;# 
   371  1F3B                     	;# 
   372  1F3C                     	;# 
   373  1F3D                     	;# 
   374  1F3E                     	;# 
   375  1F3F                     	;# 
   376  1F43                     	;# 
   377  1F44                     	;# 
   378  1F45                     	;# 
   379  1F46                     	;# 
   380  1F47                     	;# 
   381  1F48                     	;# 
   382  1F49                     	;# 
   383  1F4A                     	;# 
   384  1F4E                     	;# 
   385  1F4F                     	;# 
   386  1F50                     	;# 
   387  1F51                     	;# 
   388  1F52                     	;# 
   389  1F53                     	;# 
   390  1F54                     	;# 
   391  1F55                     	;# 
   392  1F65                     	;# 
   393  1F68                     	;# 
   394  1F69                     	;# 
   395  1F6A                     	;# 
   396  1F6B                     	;# 
   397  1FE4                     	;# 
   398  1FE5                     	;# 
   399  1FE6                     	;# 
   400  1FE7                     	;# 
   401  1FE8                     	;# 
   402  1FE8                     	;# 
   403  1FE9                     	;# 
   404  1FEA                     	;# 
   405  1FEA                     	;# 
   406  1FEB                     	;# 
   407  1FED                     	;# 
   408  1FEE                     	;# 
   409  1FEF                     	;# 
   410  0000                     	;# 
   411  0001                     	;# 
   412  0002                     	;# 
   413  0003                     	;# 
   414  0004                     	;# 
   415  0005                     	;# 
   416  0006                     	;# 
   417  0007                     	;# 
   418  0008                     	;# 
   419  0009                     	;# 
   420  000A                     	;# 
   421  000B                     	;# 
   422  000C                     	;# 
   423  000D                     	;# 
   424  000E                     	;# 
   425  0010                     	;# 
   426  0012                     	;# 
   427  0013                     	;# 
   428  0014                     	;# 
   429  0016                     	;# 
   430  0018                     	;# 
   431  0019                     	;# 
   432  001A                     	;# 
   433  009B                     	;# 
   434  009B                     	;# 
   435  009C                     	;# 
   436  009D                     	;# 
   437  009E                     	;# 
   438  009F                     	;# 
   439  0119                     	;# 
   440  0119                     	;# 
   441  0119                     	;# 
   442  011A                     	;# 
   443  011A                     	;# 
   444  011A                     	;# 
   445  011B                     	;# 
   446  011B                     	;# 
   447  011B                     	;# 
   448  011B                     	;# 
   449  011B                     	;# 
   450  011C                     	;# 
   451  011C                     	;# 
   452  011C                     	;# 
   453  011D                     	;# 
   454  011D                     	;# 
   455  011D                     	;# 
   456  011E                     	;# 
   457  011E                     	;# 
   458  011E                     	;# 
   459  011F                     	;# 
   460  011F                     	;# 
   461  011F                     	;# 
   462  011F                     	;# 
   463  011F                     	;# 
   464  018C                     	;# 
   465  018D                     	;# 
   466  018E                     	;# 
   467  018F                     	;# 
   468  0190                     	;# 
   469  0191                     	;# 
   470  0192                     	;# 
   471  0196                     	;# 
   472  0197                     	;# 
   473  0198                     	;# 
   474  0199                     	;# 
   475  019A                     	;# 
   476  019B                     	;# 
   477  019C                     	;# 
   478  020C                     	;# 
   479  020C                     	;# 
   480  020D                     	;# 
   481  020E                     	;# 
   482  020F                     	;# 
   483  020F                     	;# 
   484  0210                     	;# 
   485  0210                     	;# 
   486  0211                     	;# 
   487  0211                     	;# 
   488  028C                     	;# 
   489  028C                     	;# 
   490  028D                     	;# 
   491  028D                     	;# 
   492  028E                     	;# 
   493  028F                     	;# 
   494  0290                     	;# 
   495  0291                     	;# 
   496  030C                     	;# 
   497  030C                     	;# 
   498  030D                     	;# 
   499  030E                     	;# 
   500  030F                     	;# 
   501  0310                     	;# 
   502  0310                     	;# 
   503  0311                     	;# 
   504  0312                     	;# 
   505  0313                     	;# 
   506  0314                     	;# 
   507  0314                     	;# 
   508  0315                     	;# 
   509  0316                     	;# 
   510  0318                     	;# 
   511  0318                     	;# 
   512  0319                     	;# 
   513  031A                     	;# 
   514  031C                     	;# 
   515  031C                     	;# 
   516  031D                     	;# 
   517  031E                     	;# 
   518  038C                     	;# 
   519  038C                     	;# 
   520  038D                     	;# 
   521  038E                     	;# 
   522  058C                     	;# 
   523  058C                     	;# 
   524  058D                     	;# 
   525  058E                     	;# 
   526  058F                     	;# 
   527  058F                     	;# 
   528  0590                     	;# 
   529  0591                     	;# 
   530  0592                     	;# 
   531  0593                     	;# 
   532  059C                     	;# 
   533  059C                     	;# 
   534  059D                     	;# 
   535  059D                     	;# 
   536  059E                     	;# 
   537  059F                     	;# 
   538  060C                     	;# 
   539  060D                     	;# 
   540  060E                     	;# 
   541  060F                     	;# 
   542  0610                     	;# 
   543  0611                     	;# 
   544  0612                     	;# 
   545  0613                     	;# 
   546  0614                     	;# 
   547  070C                     	;# 
   548  070D                     	;# 
   549  070E                     	;# 
   550  070F                     	;# 
   551  0710                     	;# 
   552  0711                     	;# 
   553  0712                     	;# 
   554  0713                     	;# 
   555  0716                     	;# 
   556  0717                     	;# 
   557  0718                     	;# 
   558  0719                     	;# 
   559  071A                     	;# 
   560  071B                     	;# 
   561  071C                     	;# 
   562  071D                     	;# 
   563  0796                     	;# 
   564  0797                     	;# 
   565  0798                     	;# 
   566  0799                     	;# 
   567  079A                     	;# 
   568  079B                     	;# 
   569  080C                     	;# 
   570  080D                     	;# 
   571  080E                     	;# 
   572  080F                     	;# 
   573  0810                     	;# 
   574  0811                     	;# 
   575  0812                     	;# 
   576  0813                     	;# 
   577  0814                     	;# 
   578  081A                     	;# 
   579  081A                     	;# 
   580  081B                     	;# 
   581  081C                     	;# 
   582  081C                     	;# 
   583  081D                     	;# 
   584  081E                     	;# 
   585  081F                     	;# 
   586  088C                     	;# 
   587  088D                     	;# 
   588  088E                     	;# 
   589  088F                     	;# 
   590  0890                     	;# 
   591  0891                     	;# 
   592  0892                     	;# 
   593  0893                     	;# 
   594  0895                     	;# 
   595  0896                     	;# 
   596  090C                     	;# 
   597  090E                     	;# 
   598  090F                     	;# 
   599  091F                     	;# 
   600  098F                     	;# 
   601  098F                     	;# 
   602  0990                     	;# 
   603  0991                     	;# 
   604  0992                     	;# 
   605  0993                     	;# 
   606  0994                     	;# 
   607  0995                     	;# 
   608  0996                     	;# 
   609  0997                     	;# 
   610  0A19                     	;# 
   611  0A19                     	;# 
   612  0A1A                     	;# 
   613  0A1A                     	;# 
   614  0A1B                     	;# 
   615  0A1B                     	;# 
   616  0A1B                     	;# 
   617  0A1C                     	;# 
   618  0A1C                     	;# 
   619  0A1D                     	;# 
   620  0A1D                     	;# 
   621  0A1E                     	;# 
   622  0A1E                     	;# 
   623  0A1F                     	;# 
   624  0A1F                     	;# 
   625  0A1F                     	;# 
   626  1E0F                     	;# 
   627  1E10                     	;# 
   628  1E11                     	;# 
   629  1E12                     	;# 
   630  1E13                     	;# 
   631  1E14                     	;# 
   632  1E15                     	;# 
   633  1E16                     	;# 
   634  1E17                     	;# 
   635  1E18                     	;# 
   636  1E19                     	;# 
   637  1E1A                     	;# 
   638  1E1B                     	;# 
   639  1E1C                     	;# 
   640  1E1D                     	;# 
   641  1E1E                     	;# 
   642  1E1F                     	;# 
   643  1E20                     	;# 
   644  1E21                     	;# 
   645  1E22                     	;# 
   646  1E23                     	;# 
   647  1E24                     	;# 
   648  1E25                     	;# 
   649  1E26                     	;# 
   650  1E27                     	;# 
   651  1E28                     	;# 
   652  1E29                     	;# 
   653  1E2A                     	;# 
   654  1E2B                     	;# 
   655  1E2C                     	;# 
   656  1E2D                     	;# 
   657  1E2E                     	;# 
   658  1E2F                     	;# 
   659  1E30                     	;# 
   660  1E31                     	;# 
   661  1E32                     	;# 
   662  1E33                     	;# 
   663  1E34                     	;# 
   664  1E35                     	;# 
   665  1E36                     	;# 
   666  1E37                     	;# 
   667  1E8F                     	;# 
   668  1E90                     	;# 
   669  1E91                     	;# 
   670  1E92                     	;# 
   671  1E93                     	;# 
   672  1E9C                     	;# 
   673  1EA1                     	;# 
   674  1EA2                     	;# 
   675  1EB1                     	;# 
   676  1EBB                     	;# 
   677  1EBC                     	;# 
   678  1EBD                     	;# 
   679  1EBE                     	;# 
   680  1EC3                     	;# 
   681  1EC5                     	;# 
   682  1EC6                     	;# 
   683  1EC7                     	;# 
   684  1EC8                     	;# 
   685  1EC9                     	;# 
   686  1ECA                     	;# 
   687  1ECB                     	;# 
   688  1ECC                     	;# 
   689  1ECD                     	;# 
   690  1ECE                     	;# 
   691  1F10                     	;# 
   692  1F11                     	;# 
   693  1F12                     	;# 
   694  1F13                     	;# 
   695  1F14                     	;# 
   696  1F15                     	;# 
   697  1F16                     	;# 
   698  1F17                     	;# 
   699  1F18                     	;# 
   700  1F19                     	;# 
   701  1F1A                     	;# 
   702  1F1B                     	;# 
   703  1F1C                     	;# 
   704  1F1D                     	;# 
   705  1F1E                     	;# 
   706  1F1F                     	;# 
   707  1F20                     	;# 
   708  1F21                     	;# 
   709  1F22                     	;# 
   710  1F23                     	;# 
   711  1F24                     	;# 
   712  1F25                     	;# 
   713  1F26                     	;# 
   714  1F27                     	;# 
   715  1F38                     	;# 
   716  1F39                     	;# 
   717  1F3A                     	;# 
   718  1F3B                     	;# 
   719  1F3C                     	;# 
   720  1F3D                     	;# 
   721  1F3E                     	;# 
   722  1F3F                     	;# 
   723  1F43                     	;# 
   724  1F44                     	;# 
   725  1F45                     	;# 
   726  1F46                     	;# 
   727  1F47                     	;# 
   728  1F48                     	;# 
   729  1F49                     	;# 
   730  1F4A                     	;# 
   731  1F4E                     	;# 
   732  1F4F                     	;# 
   733  1F50                     	;# 
   734  1F51                     	;# 
   735  1F52                     	;# 
   736  1F53                     	;# 
   737  1F54                     	;# 
   738  1F55                     	;# 
   739  1F65                     	;# 
   740  1F68                     	;# 
   741  1F69                     	;# 
   742  1F6A                     	;# 
   743  1F6B                     	;# 
   744  1FE4                     	;# 
   745  1FE5                     	;# 
   746  1FE6                     	;# 
   747  1FE7                     	;# 
   748  1FE8                     	;# 
   749  1FE8                     	;# 
   750  1FE9                     	;# 
   751  1FEA                     	;# 
   752  1FEA                     	;# 
   753  1FEB                     	;# 
   754  1FED                     	;# 
   755  1FEE                     	;# 
   756  1FEF                     	;# 
   757                           
   758                           	psect	nvBANK0
   759  006A                     __pnvBANK0:	
   760  006A                     _maxDodo:	
   761  006A                     	ds	4
   762  006E                     _Switch_State:	
   763  006E                     	ds	1
   764  000D                     _PORTBbits	set	13
   765  0014                     _TRISCbits	set	20
   766  0012                     _TRISAbits	set	18
   767  000E                     _PORTCbits	set	14
   768  0018                     _LATAbits	set	24
   769  0013                     _TRISBbits	set	19
   770  005E                     _PEIE	set	94
   771  005F                     _GIE	set	95
   772  0196                     _SSP2BUF	set	406
   773  0198                     _SSP2MSK	set	408
   774  0197                     _SSP2ADD	set	407
   775  019C                     _SSP2CON3bits	set	412
   776  019B                     _SSP2CON2bits	set	411
   777  019A                     _SSP2CON1bits	set	410
   778  0199                     _SSP2STATbits	set	409
   779  059C                     _TMR0L	set	1436
   780  059D                     _TMR0H	set	1437
   781  059F                     _T0CON1bits	set	1439
   782  059E                     _T0CON0bits	set	1438
   783  0716                     _PIE0bits	set	1814
   784  070C                     _PIR0bits	set	1804
   785  070F                     _PIR3bits	set	1807
   786  079B                     _PMD5	set	1947
   787  079A                     _PMD4	set	1946
   788  0799                     _PMD3	set	1945
   789  0798                     _PMD2	set	1944
   790  0797                     _PMD1	set	1943
   791  0796                     _PMD0	set	1942
   792  0812                     _VREGCONbits	set	2066
   793  080C                     _WDTCON0bits	set	2060
   794  080D                     _WDTCON1bits	set	2061
   795  0893                     _OSCFRQ	set	2195
   796  088D                     _OSCCON1bits	set	2189
   797  1E8F                     _PPSLOCK	set	7823
   798  1F4A                     _IOCBFbits	set	8010
   799  1F1A                     _RB2PPS	set	7962
   800  1F19                     _RB1PPS	set	7961
   801  1F49                     _IOCBN	set	8009
   802  1F48                     _IOCBP	set	8008
   803  1F43                     _ANSELB	set	8003
   804                           
   805                           ; #config settings
   806  0000                     
   807                           	psect	cinit
   808  003E                     start_initialization:	
   809  003E                     __initialization:	
   810                           
   811                           ; Clear objects allocated to BANK0
   812  003E  3020               	movlw	low __pbssBANK0
   813  003F  0084               	movwf	4
   814  0040  3000               	movlw	high __pbssBANK0
   815  0041  0085               	movwf	5
   816  0042  3030               	movlw	48
   817  0043  3185  257A         	fcall	clear_ram0
   818  0045                     end_of_initialization:	
   819                           ;End of C runtime variable initialization code
   820                           
   821  0045                     __end_of__initialization:	
   822  0045  107E               	bcf	int$flags,0	;clear compiler interrupt flag (level 1)
   823  0046  0140               	movlb	0
   824  0047  3184  2C70         	ljmp	_main	;jump to C main() function
   825                           
   826                           	psect	bssBANK0
   827  0020                     __pbssBANK0:	
   828  0020                     _I2C_data:	
   829  0020                     	ds	16
   830  0030                     _temps_off:	
   831  0030                     	ds	4
   832  0034                     _temps_on:	
   833  0034                     	ds	4
   834  0038                     _duty_cycle:	
   835  0038                     	ds	4
   836  003C                     _ESC_period_total:	
   837  003C                     	ds	2
   838  003E                     _ESC_period_low_bkp:	
   839  003E                     	ds	2
   840  0040                     _ESC_period_high_bkp:	
   841  0040                     	ds	2
   842  0042                     _ESC_valid_consecutive_periods_counter:	
   843  0042                     	ds	2
   844  0044                     _ESC_period_high:	
   845  0044                     	ds	2
   846  0046                     _ESC_period_low:	
   847  0046                     	ds	2
   848  0048                     _turnoffAllowed:	
   849  0048                     	ds	1
   850  0049                     _I2C_receiving:	
   851  0049                     	ds	1
   852  004A                     _I2C_dataCounter:	
   853  004A                     	ds	1
   854  004B                     _ESC_period_over:	
   855  004B                     	ds	1
   856  004C                     _OSC_Hi_Request:	
   857  004C                     	ds	1
   858  004D                     _OSC_Lo_Request:	
   859  004D                     	ds	1
   860  004E                     _Switch_Turnoff_Request:	
   861  004E                     	ds	1
   862  004F                     _Switch_Turnon_Request:	
   863  004F                     	ds	1
   864                           
   865                           	psect	clrtext
   866  057A                     clear_ram0:	
   867                           ;	Called with FSR0 containing the base address, and
   868                           ;	WREG with the size to clear
   869                           
   870  057A  0064               	clrwdt	;clear the watchdog before getting into this loop
   871  057B                     clrloop0:	
   872  057B  0180               	clrf	0	;clear RAM location pointed to by FSR
   873  057C  3101               	addfsr 0,1
   874  057D  0B89               	decfsz	9,f	;Have we reached the end of clearing yet?
   875  057E  2D7B               	goto	clrloop0	;have we reached the end yet?
   876  057F  3400               	retlw	0	;all done for this memory range, return
   877                           
   878                           	psect	cstackCOMMON
   879  0070                     __pcstackCOMMON:	
   880  0070                     ?___flge:	
   881  0070                     ?_Turnoff:	
   882                           ; 1 bit 
   883                           
   884  0070                     ?_Turnon:	
   885                           ; 1 bytes @ 0x0
   886                           
   887  0070                     ?_I2C_Turnon:	
   888                           ; 1 bytes @ 0x0
   889                           
   890  0070                     ??_I2C_Turnon:	
   891                           ; 1 bytes @ 0x0
   892                           
   893  0070                     ?_Switch_Turnon:	
   894                           ; 1 bytes @ 0x0
   895                           
   896  0070                     ??_Switch_Turnon:	
   897                           ; 1 bytes @ 0x0
   898                           
   899  0070                     ?_Switch_Turnoff:	
   900                           ; 1 bytes @ 0x0
   901                           
   902  0070                     ??_Switch_Turnoff:	
   903                           ; 1 bytes @ 0x0
   904                           
   905  0070                     ?_setOscillator:	
   906                           ; 1 bytes @ 0x0
   907                           
   908  0070                     ??_setOscillator:	
   909                           ; 1 bytes @ 0x0
   910                           
   911  0070                     ?_ESC_monitor_Turnon:	
   912                           ; 1 bytes @ 0x0
   913                           
   914  0070                     ??_ESC_monitor_Turnon:	
   915                           ; 1 bytes @ 0x0
   916                           
   917  0070                     ?_ESC_monitor_Turnoff:	
   918                           ; 1 bytes @ 0x0
   919                           
   920  0070                     ??_ESC_monitor_Turnoff:	
   921                           ; 1 bytes @ 0x0
   922                           
   923  0070                     ?_I2C_Manage:	
   924                           ; 1 bytes @ 0x0
   925                           
   926  0070                     ?_ESC_monitor_Manage:	
   927                           ; 1 bytes @ 0x0
   928                           
   929  0070                     ?_Switch_Manage:	
   930                           ; 1 bytes @ 0x0
   931                           
   932  0070                     ??_Switch_Manage:	
   933                           ; 1 bytes @ 0x0
   934                           
   935  0070                     ?_main:	
   936                           ; 1 bytes @ 0x0
   937                           
   938  0070                     ?_isr:	
   939                           ; 1 bytes @ 0x0
   940                           
   941  0070                     ??_isr:	
   942                           ; 1 bytes @ 0x0
   943                           
   944  0070                     ?___xxtofl:	
   945                           ; 1 bytes @ 0x0
   946                           
   947  0070                     setOscillator@mode:	
   948                           ; 4 bytes @ 0x0
   949                           
   950  0070                     ___flge@ff1:	
   951                           ; 1 bytes @ 0x0
   952                           
   953  0070                     ___xxtofl@val:	
   954                           ; 4 bytes @ 0x0
   955                           
   956                           
   957                           ; 4 bytes @ 0x0
   958  0070                     	ds	1
   959  0071                     Switch_Turnon@i:	
   960  0071                     Switch_Turnoff@i:	
   961                           ; 1 bytes @ 0x1
   962                           
   963                           
   964                           ; 1 bytes @ 0x1
   965  0071                     	ds	1
   966  0072                     ??_Turnoff:	
   967  0072                     ??_Turnon:	
   968                           ; 1 bytes @ 0x2
   969                           
   970  0072                     ?_goToBed:	
   971                           ; 1 bytes @ 0x2
   972                           
   973  0072                     goToBed@timer:	
   974                           ; 1 bytes @ 0x2
   975                           
   976                           
   977                           ; 4 bytes @ 0x2
   978  0072                     	ds	2
   979  0074                     ??___xxtofl:	
   980  0074                     ___flge@ff2:	
   981                           ; 1 bytes @ 0x4
   982                           
   983                           
   984                           ; 4 bytes @ 0x4
   985  0074                     	ds	2
   986  0076                     ??_goToBed:	
   987  0076                     goToBed@i:	
   988                           ; 1 bytes @ 0x6
   989                           
   990                           
   991                           ; 4 bytes @ 0x6
   992  0076                     	ds	2
   993  0078                     ___xxtofl@sign:	
   994                           
   995                           ; 1 bytes @ 0x8
   996  0078                     	ds	1
   997  0079                     ___xxtofl@exp:	
   998                           
   999                           ; 1 bytes @ 0x9
  1000  0079                     	ds	1
  1001  007A                     I2C_Manage@bidon:	
  1002  007A                     ___xxtofl@arg:	
  1003                           ; 1 bytes @ 0xA
  1004                           
  1005                           
  1006                           ; 4 bytes @ 0xA
  1007  007A                     	ds	4
  1008  007E                     ??_ESC_monitor_Manage:	
  1009  007E                     ??_main:	
  1010                           ; 1 bytes @ 0xE
  1011                           
  1012                           
  1013                           	psect	cstackBANK0
  1014  0050                     __pcstackBANK0:	
  1015                           ; 1 bytes @ 0xE
  1016                           
  1017  0050                     ??_I2C_Manage:	
  1018  0050                     ??___flge:	
  1019                           ; 1 bytes @ 0x0
  1020                           
  1021  0050                     ?___fldiv:	
  1022                           ; 1 bytes @ 0x0
  1023                           
  1024  0050                     ___fldiv@a:	
  1025                           ; 4 bytes @ 0x0
  1026                           
  1027                           
  1028                           ; 4 bytes @ 0x0
  1029  0050                     	ds	4
  1030  0054                     ___fldiv@b:	
  1031                           
  1032                           ; 4 bytes @ 0x4
  1033  0054                     	ds	4
  1034  0058                     ??___fldiv:	
  1035                           
  1036                           ; 1 bytes @ 0x8
  1037  0058                     	ds	5
  1038  005D                     ___fldiv@rem:	
  1039                           
  1040                           ; 4 bytes @ 0xD
  1041  005D                     	ds	4
  1042  0061                     ___fldiv@sign:	
  1043                           
  1044                           ; 1 bytes @ 0x11
  1045  0061                     	ds	1
  1046  0062                     ___fldiv@new_exp:	
  1047                           
  1048                           ; 2 bytes @ 0x12
  1049  0062                     	ds	2
  1050  0064                     ___fldiv@grs:	
  1051                           
  1052                           ; 4 bytes @ 0x14
  1053  0064                     	ds	4
  1054  0068                     ___fldiv@bexp:	
  1055                           
  1056                           ; 1 bytes @ 0x18
  1057  0068                     	ds	1
  1058  0069                     ___fldiv@aexp:	
  1059                           
  1060                           ; 1 bytes @ 0x19
  1061  0069                     	ds	1
  1062                           
  1063                           	psect	maintext
  1064  0470                     __pmaintext:	
  1065 ;;
  1066 ;;Main: autosize = 0, tempsize = 0, incstack = 0, save=0
  1067 ;;
  1068 ;; *************** function _main *****************
  1069 ;; Defined at:
  1070 ;;		line 310 in file "main.c"
  1071 ;; Parameters:    Size  Location     Type
  1072 ;;		None
  1073 ;; Auto vars:     Size  Location     Type
  1074 ;;		None
  1075 ;; Return value:  Size  Location     Type
  1076 ;;                  1    wreg      void 
  1077 ;; Registers used:
  1078 ;;		wreg, fsr1l, fsr1h, status,2, status,0, pclath, cstack
  1079 ;; Tracked objects:
  1080 ;;		On entry : B3F/0
  1081 ;;		On exit  : 0/0
  1082 ;;		Unchanged: 0/0
  1083 ;; Data sizes:     COMMON   BANK0   BANK1   BANK2   BANK3   BANK4   BANK5   BANK6   BANK7   BANK8   BANK9  BANK10  BANK1
      +1  BANK12
  1084 ;;      Params:         0       0       0       0       0       0       0       0       0       0       0       0       
      +0       0
  1085 ;;      Locals:         0       0       0       0       0       0       0       0       0       0       0       0       
      +0       0
  1086 ;;      Temps:          0       0       0       0       0       0       0       0       0       0       0       0       
      +0       0
  1087 ;;      Totals:         0       0       0       0       0       0       0       0       0       0       0       0       
      +0       0
  1088 ;;Total ram usage:        0 bytes
  1089 ;; Hardware stack levels required when called:    6
  1090 ;; This function calls:
  1091 ;;		_ESC_monitor_Manage
  1092 ;;		_I2C_Manage
  1093 ;;		_Switch_Manage
  1094 ;;		_Turnoff
  1095 ;;		_Turnon
  1096 ;; This function is called by:
  1097 ;;		Startup code after reset
  1098 ;; This function uses a non-reentrant model
  1099 ;;
  1100                           
  1101                           
  1102                           ;psect for function _main
  1103  0470                     _main:	
  1104                           
  1105                           ;main.c: 312:     maxDodo = 0.053;
  1106                           
  1107                           ;incstack = 0
  1108                           ; Regs used in _main: [wreg+fsr1l+fsr1h+status,2+status,0+pclath+cstack]
  1109  0470  303D               	movlw	61
  1110  0471  0140               	movlb	0	; select bank0
  1111  0472  00ED               	movwf	_maxDodo+3
  1112  0473  3059               	movlw	89
  1113  0474  00EC               	movwf	_maxDodo+2
  1114  0475  3016               	movlw	22
  1115  0476  00EB               	movwf	_maxDodo+1
  1116  0477  3087               	movlw	135
  1117  0478  00EA               	movwf	_maxDodo
  1118                           
  1119                           ;main.c: 314:     LATAbits.LATA4 = 0;
  1120  0479  1218               	bcf	24,4	;volatile
  1121                           
  1122                           ;main.c: 315:     LATAbits.LATA5 = 0;
  1123  047A  1298               	bcf	24,5	;volatile
  1124                           
  1125                           ;main.c: 316:     LATAbits.LATA2 = 0;
  1126  047B  1118               	bcf	24,2	;volatile
  1127                           
  1128                           ;main.c: 317:     LATAbits.LATA3 = 0;
  1129  047C  1198               	bcf	24,3	;volatile
  1130                           
  1131                           ;main.c: 319:     TRISAbits.TRISA4 = 0;
  1132  047D  1212               	bcf	18,4	;volatile
  1133                           
  1134                           ;main.c: 320:     TRISAbits.TRISA5 = 0;
  1135  047E  1292               	bcf	18,5	;volatile
  1136                           
  1137                           ;main.c: 321:     TRISAbits.TRISA2 = 0;
  1138  047F  1112               	bcf	18,2	;volatile
  1139                           
  1140                           ;main.c: 322:     TRISAbits.TRISA3 = 0;
  1141  0480  1192               	bcf	18,3	;volatile
  1142                           
  1143                           ;main.c: 324:     TRISCbits.TRISC5 = 1;
  1144  0481  1694               	bsf	20,5	;volatile
  1145                           
  1146                           ;main.c: 325:     TRISCbits.TRISC6 = 1;
  1147  0482  1714               	bsf	20,6	;volatile
  1148                           
  1149                           ;main.c: 326:     TRISCbits.TRISC1 = 1;
  1150  0483  1494               	bsf	20,1	;volatile
  1151                           
  1152                           ;main.c: 328:     turnoffAllowed = 0;
  1153  0484  01C8               	clrf	_turnoffAllowed
  1154                           
  1155                           ;main.c: 330:     Turnon();
  1156  0485  3185  2510  3184   	fcall	_Turnon
  1157                           
  1158                           ;main.c: 332:     OSCFRQ = 5;
  1159  0488  3005               	movlw	5
  1160  0489  0151               	movlb	17	; select bank17
  1161  048A  0093               	movwf	19	;volatile
  1162                           
  1163                           ;main.c: 333:     GIE = 0;
  1164  048B  138B               	bcf	11,7	;volatile
  1165                           
  1166                           ;main.c: 334:     PPSLOCK = 0x55;
  1167  048C  3055               	movlw	85
  1168  048D  017D               	movlb	61	; select bank61
  1169  048E  008F               	movwf	15	;volsfr
  1170                           
  1171                           ;main.c: 335:     PPSLOCK = 0xAA;
  1172  048F  30AA               	movlw	170
  1173  0490  008F               	movwf	15	;volsfr
  1174                           
  1175                           ;main.c: 336:     PPSLOCK = 0x00;
  1176  0491  018F               	clrf	15	;volsfr
  1177                           
  1178                           ;main.c: 338:     RB1PPS = 0x17;
  1179  0492  3017               	movlw	23
  1180  0493  017E               	movlb	62	; select bank62
  1181  0494  0099               	movwf	25	;volatile
  1182                           
  1183                           ;main.c: 339:     RB2PPS = 0x18;
  1184  0495  3018               	movlw	24
  1185  0496  009A               	movwf	26	;volatile
  1186                           
  1187                           ;main.c: 341:     PPSLOCK = 0x55;
  1188  0497  3055               	movlw	85
  1189  0498  017D               	movlb	61	; select bank61
  1190  0499  008F               	movwf	15	;volsfr
  1191                           
  1192                           ;main.c: 342:     PPSLOCK = 0xAA;
  1193  049A  30AA               	movlw	170
  1194  049B  008F               	movwf	15	;volsfr
  1195                           
  1196                           ;main.c: 343:     PPSLOCK = 0x01;
  1197  049C  3001               	movlw	1
  1198  049D  008F               	movwf	15	;volsfr
  1199                           
  1200                           ;main.c: 346:     PEIE = 1;
  1201  049E  170B               	bsf	11,6	;volatile
  1202                           
  1203                           ;main.c: 347:     GIE = 1;
  1204  049F  178B               	bsf	11,7	;volatile
  1205                           
  1206                           ;main.c: 349:     Turnoff();
  1207  04A0  3185  252B  3184   	fcall	_Turnoff
  1208                           
  1209                           ;main.c: 350:     Turnon();
  1210  04A3  3185  2510  3184   	fcall	_Turnon
  1211  04A6                     l1647:	
  1212                           ;main.c: 352:     while(1)
  1213                           
  1214                           
  1215                           ;main.c: 353:     {;main.c: 354:         I2C_Manage();
  1216  04A6  3182  2276  3184   	fcall	_I2C_Manage
  1217                           
  1218                           ;main.c: 355:         ESC_monitor_Manage();
  1219  04A9  3183  23A3  3184   	fcall	_ESC_monitor_Manage
  1220                           
  1221                           ;main.c: 356:         Switch_Manage();
  1222  04AC  3185  256B  3184   	fcall	_Switch_Manage
  1223                           
  1224                           ;main.c: 357:     }
  1225  04AF  2CA6               	goto	l1647
  1226  04B0                     __end_of_main:	
  1227                           
  1228                           	psect	text1
  1229  056B                     __ptext1:	
  1230 ;; *************** function _Switch_Manage *****************
  1231 ;; Defined at:
  1232 ;;		line 267 in file "main.c"
  1233 ;; Parameters:    Size  Location     Type
  1234 ;;		None
  1235 ;; Auto vars:     Size  Location     Type
  1236 ;;		None
  1237 ;; Return value:  Size  Location     Type
  1238 ;;                  1    wreg      void 
  1239 ;; Registers used:
  1240 ;;		wreg, status,2, status,0
  1241 ;; Tracked objects:
  1242 ;;		On entry : 0/0
  1243 ;;		On exit  : 0/0
  1244 ;;		Unchanged: 0/0
  1245 ;; Data sizes:     COMMON   BANK0   BANK1   BANK2   BANK3   BANK4   BANK5   BANK6   BANK7   BANK8   BANK9  BANK10  BANK1
      +1  BANK12
  1246 ;;      Params:         0       0       0       0       0       0       0       0       0       0       0       0       
      +0       0
  1247 ;;      Locals:         0       0       0       0       0       0       0       0       0       0       0       0       
      +0       0
  1248 ;;      Temps:          0       0       0       0       0       0       0       0       0       0       0       0       
      +0       0
  1249 ;;      Totals:         0       0       0       0       0       0       0       0       0       0       0       0       
      +0       0
  1250 ;;Total ram usage:        0 bytes
  1251 ;; Hardware stack levels used:    1
  1252 ;; Hardware stack levels required when called:    1
  1253 ;; This function calls:
  1254 ;;		Nothing
  1255 ;; This function is called by:
  1256 ;;		_main
  1257 ;; This function uses a non-reentrant model
  1258 ;;
  1259                           
  1260                           
  1261                           ;psect for function _Switch_Manage
  1262  056B                     _Switch_Manage:	
  1263                           
  1264                           ;main.c: 269:     if(Switch_State == 1)
  1265                           
  1266                           ;incstack = 0
  1267                           ; Regs used in _Switch_Manage: [wreg+status,2+status,0]
  1268  056B  0140               	movlb	0	; select bank0
  1269  056C  036E               	decf	_Switch_State,w
  1270  056D  1D03               	btfss	3,2
  1271  056E  0008               	return
  1272                           
  1273                           ;main.c: 270:     {;main.c: 271:         LATAbits.LATA2 = !LATAbits.LATA2;
  1274  056F  1003               	clrc
  1275  0570  1D18               	btfss	24,2	;volatile
  1276  0571  1403               	setc
  1277  0572  1C03               	btfss	3,0
  1278  0573  2D77               	goto	u1690
  1279  0574  0140               	movlb	0	; select bank0
  1280  0575  1518               	bsf	24,2	;volatile
  1281  0576  0008               	return
  1282  0577                     u1690:	
  1283  0577  0140               	movlb	0	; select bank0
  1284  0578  1118               	bcf	24,2	;volatile
  1285  0579  0008               	return
  1286  057A                     __end_of_Switch_Manage:	
  1287                           ;main.c: 272:     }
  1288                           
  1289                           
  1290                           	psect	text2
  1291  0276                     __ptext2:	
  1292 ;; *************** function _I2C_Manage *****************
  1293 ;; Defined at:
  1294 ;;		line 196 in file "main.c"
  1295 ;; Parameters:    Size  Location     Type
  1296 ;;		None
  1297 ;; Auto vars:     Size  Location     Type
  1298 ;;  bidon           1   10[COMMON] unsigned char 
  1299 ;; Return value:  Size  Location     Type
  1300 ;;                  1    wreg      void 
  1301 ;; Registers used:
  1302 ;;		wreg, fsr1l, fsr1h, status,2, status,0, pclath, cstack
  1303 ;; Tracked objects:
  1304 ;;		On entry : 0/0
  1305 ;;		On exit  : 0/0
  1306 ;;		Unchanged: 0/0
  1307 ;; Data sizes:     COMMON   BANK0   BANK1   BANK2   BANK3   BANK4   BANK5   BANK6   BANK7   BANK8   BANK9  BANK10  BANK1
      +1  BANK12
  1308 ;;      Params:         0       0       0       0       0       0       0       0       0       0       0       0       
      +0       0
  1309 ;;      Locals:         1       0       0       0       0       0       0       0       0       0       0       0       
      +0       0
  1310 ;;      Temps:          0      16       0       0       0       0       0       0       0       0       0       0       
      +0       0
  1311 ;;      Totals:         1      16       0       0       0       0       0       0       0       0       0       0       
      +0       0
  1312 ;;Total ram usage:       17 bytes
  1313 ;; Hardware stack levels used:    1
  1314 ;; Hardware stack levels required when called:    5
  1315 ;; This function calls:
  1316 ;;		_goToBed
  1317 ;; This function is called by:
  1318 ;;		_main
  1319 ;; This function uses a non-reentrant model
  1320 ;;
  1321                           
  1322                           
  1323                           ;psect for function _I2C_Manage
  1324  0276                     _I2C_Manage:	
  1325                           
  1326                           ;main.c: 198:     if(PIR3bits.SSP2IF)
  1327                           
  1328                           ;incstack = 0
  1329                           ; Regs used in _I2C_Manage: [wreg+fsr1l+fsr1h+status,2+status,0+pclath+cstack]
  1330  0276  014E               	movlb	14	; select bank14
  1331  0277  1D0F               	btfss	15,2	;volatile
  1332  0278  0008               	return
  1333                           
  1334                           ;main.c: 199:     {;main.c: 200:         unsigned char bidon = 0;
  1335  0279  01FA               	clrf	I2C_Manage@bidon
  1336                           
  1337                           ;main.c: 201:         PIR3bits.SSP2IF = 0;
  1338  027A  110F               	bcf	15,2	;volatile
  1339                           
  1340                           ;main.c: 202:         bidon = SSP2BUF;
  1341  027B  0143               	movlb	3	; select bank3
  1342  027C  0816               	movf	22,w	;volatile
  1343  027D  0140               	movlb	0	; select bank0
  1344  027E  00D0               	movwf	??_I2C_Manage
  1345  027F  0850               	movf	??_I2C_Manage,w
  1346  0280  00FA               	movwf	I2C_Manage@bidon
  1347                           
  1348                           ;main.c: 203:         SSP2CON1bits.CKP = 1;
  1349  0281  0143               	movlb	3	; select bank3
  1350  0282  161A               	bsf	26,4	;volatile
  1351                           
  1352                           ;main.c: 204:         if(SSP2STATbits.D_nA == 0 && bidon == (SSP2ADD & 0xFE))
  1353  0283  1A99               	btfsc	25,5	;volatile
  1354  0284  2A91               	goto	l163
  1355  0285  30FE               	movlw	254
  1356  0286  0517               	andwf	23,w	;volatile
  1357  0287  0140               	movlb	0	; select bank0
  1358  0288  00D0               	movwf	??_I2C_Manage
  1359  0289  0850               	movf	??_I2C_Manage,w
  1360  028A  067A               	xorwf	I2C_Manage@bidon,w
  1361  028B  1D03               	skipz
  1362  028C  2A91               	goto	l163
  1363                           
  1364                           ;main.c: 205:         {;main.c: 206:             I2C_receiving = 1;
  1365  028D  01C9               	clrf	_I2C_receiving
  1366  028E  0AC9               	incf	_I2C_receiving,f
  1367                           
  1368                           ;main.c: 207:             I2C_dataCounter = 0;
  1369  028F  01CA               	clrf	_I2C_dataCounter
  1370                           
  1371                           ;main.c: 208:         }
  1372  0290  2A9C               	goto	l1537
  1373  0291                     l163:	
  1374                           ;main.c: 209:         else if(SSP2STATbits.D_nA == 0 && bidon != (SSP2ADD & 0xFE))
  1375                           
  1376  0291  0143               	movlb	3	; select bank3
  1377  0292  1A99               	btfsc	25,5	;volatile
  1378  0293  2A9C               	goto	l1537
  1379  0294  30FE               	movlw	254
  1380  0295  0517               	andwf	23,w	;volatile
  1381  0296  0140               	movlb	0	; select bank0
  1382  0297  00D0               	movwf	??_I2C_Manage
  1383  0298  0850               	movf	??_I2C_Manage,w
  1384  0299  067A               	xorwf	I2C_Manage@bidon,w
  1385  029A  1D03               	btfss	3,2
  1386                           
  1387                           ;main.c: 210:         {;main.c: 211:             I2C_receiving = 0;
  1388  029B  01C9               	clrf	_I2C_receiving
  1389  029C                     l1537:	
  1390                           ;main.c: 212:         }
  1391                           
  1392                           
  1393                           ;main.c: 214:         if(I2C_receiving && SSP2STATbits.DA == 1)
  1394  029C  0140               	movlb	0	; select bank0
  1395  029D  0849               	movf	_I2C_receiving,w
  1396  029E  1903               	btfsc	3,2
  1397  029F  2AB0               	goto	l1545
  1398  02A0  0143               	movlb	3	; select bank3
  1399  02A1  1E99               	btfss	25,5	;volatile
  1400  02A2  2AB0               	goto	l1545
  1401                           
  1402                           ;main.c: 215:         {;main.c: 216:             I2C_data[I2C_dataCounter++] = bidon;
  1403  02A3  087A               	movf	I2C_Manage@bidon,w
  1404  02A4  0140               	movlb	0	; select bank0
  1405  02A5  00D0               	movwf	??_I2C_Manage
  1406  02A6  084A               	movf	_I2C_dataCounter,w
  1407  02A7  3E20               	addlw	(low (_I2C_data| 0))& (0+255)
  1408  02A8  0086               	movwf	6
  1409  02A9  0187               	clrf	7
  1410  02AA  0850               	movf	??_I2C_Manage,w
  1411  02AB  0081               	movwf	1
  1412  02AC  3001               	movlw	1
  1413  02AD  00D0               	movwf	??_I2C_Manage
  1414  02AE  0850               	movf	??_I2C_Manage,w
  1415  02AF  07CA               	addwf	_I2C_dataCounter,f
  1416  02B0                     l1545:	
  1417                           ;main.c: 217:         }
  1418                           
  1419                           
  1420                           ;main.c: 219:         if(I2C_receiving && SSP2STATbits.DA == 1 && SSP2STATbits.P == 1)
  1421  02B0  0140               	movlb	0	; select bank0
  1422  02B1  0849               	movf	_I2C_receiving,w
  1423  02B2  1903               	btfsc	3,2
  1424  02B3  0008               	return
  1425  02B4  0143               	movlb	3	; select bank3
  1426  02B5  1E99               	btfss	25,5	;volatile
  1427  02B6  0008               	return
  1428  02B7  1E19               	btfss	25,4	;volatile
  1429  02B8  0008               	return
  1430                           
  1431                           ;main.c: 220:         {;main.c: 221:             I2C_receiving = 0;
  1432  02B9  0140               	movlb	0	; select bank0
  1433  02BA  01C9               	clrf	_I2C_receiving
  1434                           
  1435                           ;main.c: 223:             if(I2C_dataCounter == 5 && I2C_data[0] == 0x31)
  1436  02BB  3005               	movlw	5
  1437  02BC  064A               	xorwf	_I2C_dataCounter,w
  1438  02BD  1D03               	btfss	3,2
  1439  02BE  0008               	return
  1440  02BF  3031               	movlw	49
  1441  02C0  0620               	xorwf	_I2C_data,w
  1442  02C1  1D03               	btfss	3,2
  1443  02C2  0008               	return
  1444                           
  1445                           ;main.c: 224:             {;main.c: 225:                 if(turnoffAllowed == 1)
  1446  02C3  0348               	decf	_turnoffAllowed,w
  1447  02C4  1D03               	btfss	3,2
  1448  02C5  0008               	return
  1449                           
  1450                           ;main.c: 226:                     goToBed((unsigned long long)I2C_data[1]<<24 | (unsigne
      +                          d long long)I2C_data[2]<<16 | (unsigned long long)I2C_data[3]<<8 | (unsigned long long)I
      +                          2C_data[4]<<0);
  1451  02C6  0824               	movf	_I2C_data+4,w
  1452  02C7  00D0               	movwf	??_I2C_Manage
  1453  02C8  01D1               	clrf	??_I2C_Manage+1
  1454  02C9  01D2               	clrf	??_I2C_Manage+2
  1455  02CA  01D3               	clrf	??_I2C_Manage+3
  1456  02CB  0823               	movf	_I2C_data+3,w
  1457  02CC  00D4               	movwf	??_I2C_Manage+4
  1458  02CD  01D5               	clrf	??_I2C_Manage+5
  1459  02CE  01D6               	clrf	??_I2C_Manage+6
  1460  02CF  01D7               	clrf	??_I2C_Manage+7
  1461  02D0  3008               	movlw	8
  1462  02D1                     u1625:	
  1463  02D1  35D4               	lslf	??_I2C_Manage+4,f
  1464  02D2  0DD5               	rlf	??_I2C_Manage+5,f
  1465  02D3  0DD6               	rlf	??_I2C_Manage+6,f
  1466  02D4  0DD7               	rlf	??_I2C_Manage+7,f
  1467  02D5  0B89               	decfsz	9,f
  1468  02D6  2AD1               	goto	u1625
  1469  02D7  0822               	movf	_I2C_data+2,w
  1470  02D8  00D8               	movwf	??_I2C_Manage+8
  1471  02D9  01D9               	clrf	??_I2C_Manage+9
  1472  02DA  01DA               	clrf	??_I2C_Manage+10
  1473  02DB  01DB               	clrf	??_I2C_Manage+11
  1474  02DC  3010               	movlw	16
  1475  02DD                     u1635:	
  1476  02DD  35D8               	lslf	??_I2C_Manage+8,f
  1477  02DE  0DD9               	rlf	??_I2C_Manage+9,f
  1478  02DF  0DDA               	rlf	??_I2C_Manage+10,f
  1479  02E0  0DDB               	rlf	??_I2C_Manage+11,f
  1480  02E1  0B89               	decfsz	9,f
  1481  02E2  2ADD               	goto	u1635
  1482  02E3  0821               	movf	_I2C_data+1,w
  1483  02E4  00DC               	movwf	??_I2C_Manage+12
  1484  02E5  01DD               	clrf	??_I2C_Manage+13
  1485  02E6  01DE               	clrf	??_I2C_Manage+14
  1486  02E7  01DF               	clrf	??_I2C_Manage+15
  1487  02E8  3018               	movlw	24
  1488  02E9                     u1645:	
  1489  02E9  35DC               	lslf	??_I2C_Manage+12,f
  1490  02EA  0DDD               	rlf	??_I2C_Manage+13,f
  1491  02EB  0DDE               	rlf	??_I2C_Manage+14,f
  1492  02EC  0DDF               	rlf	??_I2C_Manage+15,f
  1493  02ED  0B89               	decfsz	9,f
  1494  02EE  2AE9               	goto	u1645
  1495  02EF  085C               	movf	??_I2C_Manage+12,w
  1496  02F0  04D8               	iorwf	??_I2C_Manage+8,f
  1497  02F1  085D               	movf	??_I2C_Manage+13,w
  1498  02F2  04D9               	iorwf	??_I2C_Manage+9,f
  1499  02F3  085E               	movf	??_I2C_Manage+14,w
  1500  02F4  04DA               	iorwf	??_I2C_Manage+10,f
  1501  02F5  085F               	movf	??_I2C_Manage+15,w
  1502  02F6  04DB               	iorwf	??_I2C_Manage+11,f
  1503  02F7  0858               	movf	??_I2C_Manage+8,w
  1504  02F8  04D4               	iorwf	??_I2C_Manage+4,f
  1505  02F9  0859               	movf	??_I2C_Manage+9,w
  1506  02FA  04D5               	iorwf	??_I2C_Manage+5,f
  1507  02FB  085A               	movf	??_I2C_Manage+10,w
  1508  02FC  04D6               	iorwf	??_I2C_Manage+6,f
  1509  02FD  085B               	movf	??_I2C_Manage+11,w
  1510  02FE  04D7               	iorwf	??_I2C_Manage+7,f
  1511  02FF  0850               	movf	??_I2C_Manage,w
  1512  0300  0454               	iorwf	??_I2C_Manage+4,w
  1513  0301  00F2               	movwf	goToBed@timer
  1514  0302  0851               	movf	??_I2C_Manage+1,w
  1515  0303  0455               	iorwf	??_I2C_Manage+5,w
  1516  0304  00F3               	movwf	goToBed@timer+1
  1517  0305  0852               	movf	??_I2C_Manage+2,w
  1518  0306  0456               	iorwf	??_I2C_Manage+6,w
  1519  0307  00F4               	movwf	goToBed@timer+2
  1520  0308  0853               	movf	??_I2C_Manage+3,w
  1521  0309  0457               	iorwf	??_I2C_Manage+7,w
  1522  030A  00F5               	movwf	goToBed@timer+3
  1523  030B  3184  242B         	fcall	_goToBed
  1524                           
  1525                           ;main.c: 228:         }
  1526                           
  1527                           ;main.c: 227:             }
  1528  030D  0008               	return
  1529  030E                     __end_of_I2C_Manage:	
  1530                           ;main.c: 229:     }
  1531                           
  1532                           
  1533                           	psect	text3
  1534  042B                     __ptext3:	
  1535 ;; *************** function _goToBed *****************
  1536 ;; Defined at:
  1537 ;;		line 140 in file "main.c"
  1538 ;; Parameters:    Size  Location     Type
  1539 ;;  timer           4    2[COMMON] unsigned long 
  1540 ;; Auto vars:     Size  Location     Type
  1541 ;;  i               4    6[COMMON] unsigned long 
  1542 ;; Return value:  Size  Location     Type
  1543 ;;                  1    wreg      void 
  1544 ;; Registers used:
  1545 ;;		wreg, status,2, status,0, pclath, cstack
  1546 ;; Tracked objects:
  1547 ;;		On entry : 0/0
  1548 ;;		On exit  : 0/0
  1549 ;;		Unchanged: 0/0
  1550 ;; Data sizes:     COMMON   BANK0   BANK1   BANK2   BANK3   BANK4   BANK5   BANK6   BANK7   BANK8   BANK9  BANK10  BANK1
      +1  BANK12
  1551 ;;      Params:         4       0       0       0       0       0       0       0       0       0       0       0       
      +0       0
  1552 ;;      Locals:         4       0       0       0       0       0       0       0       0       0       0       0       
      +0       0
  1553 ;;      Temps:          0       0       0       0       0       0       0       0       0       0       0       0       
      +0       0
  1554 ;;      Totals:         8       0       0       0       0       0       0       0       0       0       0       0       
      +0       0
  1555 ;;Total ram usage:        8 bytes
  1556 ;; Hardware stack levels used:    1
  1557 ;; Hardware stack levels required when called:    4
  1558 ;; This function calls:
  1559 ;;		_Turnoff
  1560 ;;		_Turnon
  1561 ;;		_setOscillator
  1562 ;; This function is called by:
  1563 ;;		_I2C_Manage
  1564 ;; This function uses a non-reentrant model
  1565 ;;
  1566                           
  1567                           
  1568                           ;psect for function _goToBed
  1569  042B                     _goToBed:	
  1570                           
  1571                           ;main.c: 140: void goToBed(unsigned long long timer);main.c: 141: {;main.c: 142:     Tur
      +                          noff();
  1572                           
  1573                           ;incstack = 0
  1574                           ; Regs used in _goToBed: [wreg+status,2+status,0+pclath+cstack]
  1575  042B  3185  252B  3184   	fcall	_Turnoff
  1576                           
  1577                           ;main.c: 143:     WDTCON1bits.WDTCS = 0x0;
  1578  042E  308F               	movlw	-113
  1579  042F  0150               	movlb	16	; select bank16
  1580  0430  058D               	andwf	13,f	;volatile
  1581                           
  1582                           ;main.c: 144:     WDTCON1bits.WINDOW = 0x7;
  1583  0431  3007               	movlw	7
  1584  0432  048D               	iorwf	13,f	;volatile
  1585                           
  1586                           ;main.c: 145:     WDTCON0bits.WDTPS = 0xa;
  1587  0433  080C               	movf	12,w	;volatile
  1588  0434  39C1               	andlw	-63
  1589  0435  3814               	iorlw	20
  1590  0436  008C               	movwf	12	;volatile
  1591                           
  1592                           ;main.c: 146:     setOscillator(0);
  1593  0437  3000               	movlw	0
  1594  0438  3185  2543  3184   	fcall	_setOscillator
  1595                           
  1596                           ;main.c: 147:     WDTCON0bits.SWDTEN = 1;
  1597  043B  0150               	movlb	16	; select bank16
  1598  043C  140C               	bsf	12,0	;volatile
  1599                           
  1600                           ;main.c: 149:     unsigned long long i = 0;
  1601  043D  3000               	movlw	0
  1602  043E  00F9               	movwf	goToBed@i+3
  1603  043F  3000               	movlw	0
  1604  0440  00F8               	movwf	goToBed@i+2
  1605  0441  3000               	movlw	0
  1606  0442  00F7               	movwf	goToBed@i+1
  1607  0443  3000               	movlw	0
  1608  0444  00F6               	movwf	goToBed@i
  1609                           
  1610                           ;main.c: 150:     while(i < timer && !(PORTCbits.RC5 && !PORTCbits.RC6) && !(PORTCbits.R
      +                          C5 && PORTCbits.RC6))
  1611  0445  2C4F               	goto	l146
  1612  0446                     l147:	
  1613  0446  0063               	sleep	;# 
  1614                           
  1615                           ;main.c: 153:         i++;
  1616  0447  3001               	movlw	1
  1617  0448  07F6               	addwf	goToBed@i,f
  1618  0449  3000               	movlw	0
  1619  044A  3DF7               	addwfc	goToBed@i+1,f
  1620  044B  3000               	movlw	0
  1621  044C  3DF8               	addwfc	goToBed@i+2,f
  1622  044D  3000               	movlw	0
  1623  044E  3DF9               	addwfc	goToBed@i+3,f
  1624  044F                     l146:	
  1625                           ;main.c: 154:     }
  1626                           
  1627                           
  1628                           ;main.c: 150:     while(i < timer && !(PORTCbits.RC5 && !PORTCbits.RC6) && !(PORTCbits.R
      +                          C5 && PORTCbits.RC6))
  1629  044F  0875               	movf	goToBed@timer+3,w
  1630  0450  0279               	subwf	goToBed@i+3,w
  1631  0451  1D03               	skipz
  1632  0452  2C5D               	goto	u965
  1633  0453  0874               	movf	goToBed@timer+2,w
  1634  0454  0278               	subwf	goToBed@i+2,w
  1635  0455  1D03               	skipz
  1636  0456  2C5D               	goto	u965
  1637  0457  0873               	movf	goToBed@timer+1,w
  1638  0458  0277               	subwf	goToBed@i+1,w
  1639  0459  1D03               	skipz
  1640  045A  2C5D               	goto	u965
  1641  045B  0872               	movf	goToBed@timer,w
  1642  045C  0276               	subwf	goToBed@i,w
  1643  045D                     u965:	
  1644  045D  1803               	skipnc
  1645  045E  2C67               	goto	l152
  1646  045F  0140               	movlb	0	; select bank0
  1647  0460  1E8E               	btfss	14,5	;volatile
  1648  0461  2C64               	goto	l151
  1649  0462  1F0E               	btfss	14,6	;volatile
  1650  0463  2C67               	goto	l152
  1651  0464                     l151:	
  1652  0464  1A8E               	btfsc	14,5	;volatile
  1653  0465  1F0E               	btfss	14,6	;volatile
  1654  0466  2C46               	goto	l147
  1655  0467                     l152:	
  1656                           
  1657                           ;main.c: 156:     WDTCON0bits.SWDTEN = 0;
  1658  0467  0150               	movlb	16	; select bank16
  1659  0468  100C               	bcf	12,0	;volatile
  1660                           
  1661                           ;main.c: 157:     setOscillator(1);
  1662  0469  3001               	movlw	1
  1663  046A  3185  2543  3184   	fcall	_setOscillator
  1664                           
  1665                           ;main.c: 158:     Turnon();
  1666  046D  3185  2510         	fcall	_Turnon
  1667  046F  0008               	return
  1668  0470                     __end_of_goToBed:	
  1669                           
  1670                           	psect	text4
  1671  0543                     __ptext4:	
  1672 ;; *************** function _setOscillator *****************
  1673 ;; Defined at:
  1674 ;;		line 127 in file "main.c"
  1675 ;; Parameters:    Size  Location     Type
  1676 ;;  mode            1    wreg     unsigned char 
  1677 ;; Auto vars:     Size  Location     Type
  1678 ;;  mode            1    0[COMMON] unsigned char 
  1679 ;; Return value:  Size  Location     Type
  1680 ;;                  1    wreg      void 
  1681 ;; Registers used:
  1682 ;;		wreg, status,2, status,0
  1683 ;; Tracked objects:
  1684 ;;		On entry : 0/0
  1685 ;;		On exit  : 0/0
  1686 ;;		Unchanged: 0/0
  1687 ;; Data sizes:     COMMON   BANK0   BANK1   BANK2   BANK3   BANK4   BANK5   BANK6   BANK7   BANK8   BANK9  BANK10  BANK1
      +1  BANK12
  1688 ;;      Params:         0       0       0       0       0       0       0       0       0       0       0       0       
      +0       0
  1689 ;;      Locals:         1       0       0       0       0       0       0       0       0       0       0       0       
      +0       0
  1690 ;;      Temps:          0       0       0       0       0       0       0       0       0       0       0       0       
      +0       0
  1691 ;;      Totals:         1       0       0       0       0       0       0       0       0       0       0       0       
      +0       0
  1692 ;;Total ram usage:        1 bytes
  1693 ;; Hardware stack levels used:    1
  1694 ;; Hardware stack levels required when called:    1
  1695 ;; This function calls:
  1696 ;;		Nothing
  1697 ;; This function is called by:
  1698 ;;		_goToBed
  1699 ;; This function uses a non-reentrant model
  1700 ;;
  1701                           
  1702                           
  1703                           ;psect for function _setOscillator
  1704  0543                     _setOscillator:	
  1705                           
  1706                           ;incstack = 0
  1707                           ; Regs used in _setOscillator: [wreg+status,2+status,0]
  1708                           ;setOscillator@mode stored from wreg
  1709  0543  00F0               	movwf	setOscillator@mode
  1710                           
  1711                           ;main.c: 127: void setOscillator(unsigned char mode);main.c: 128: {;main.c: 129:     if(
      +                          mode == 0)
  1712  0544  0870               	movf	setOscillator@mode,w
  1713  0545  1D03               	btfss	3,2
  1714  0546  2D4D               	goto	l1259
  1715                           
  1716                           ;main.c: 130:     {;main.c: 131:         OSCCON1bits.NOSC = 0x5;
  1717  0547  0151               	movlb	17	; select bank17
  1718  0548  080D               	movf	13,w	;volatile
  1719  0549  398F               	andlw	-113
  1720  054A  3850               	iorlw	80
  1721  054B  008D               	movwf	13	;volatile
  1722                           
  1723                           ;main.c: 132:     }
  1724  054C  0008               	return
  1725  054D                     l1259:	
  1726                           ;main.c: 133:     else if(mode == 1)
  1727                           
  1728  054D  0370               	decf	setOscillator@mode,w
  1729  054E  1D03               	btfss	3,2
  1730  054F  0008               	return
  1731                           
  1732                           ;main.c: 134:     {;main.c: 135:         OSCCON1bits.NOSC = 0x6;
  1733  0550  0151               	movlb	17	; select bank17
  1734  0551  080D               	movf	13,w	;volatile
  1735  0552  398F               	andlw	-113
  1736  0553  3860               	iorlw	96
  1737  0554  008D               	movwf	13	;volatile
  1738                           
  1739                           ;main.c: 136:         OSCFRQ = 0x5;
  1740  0555  3005               	movlw	5
  1741  0556  0093               	movwf	19	;volatile
  1742                           
  1743                           ;main.c: 137:     }
  1744  0557  0008               	return
  1745  0558                     __end_of_setOscillator:	
  1746                           
  1747                           	psect	text5
  1748  0510                     __ptext5:	
  1749 ;; *************** function _Turnon *****************
  1750 ;; Defined at:
  1751 ;;		line 275 in file "main.c"
  1752 ;; Parameters:    Size  Location     Type
  1753 ;;		None
  1754 ;; Auto vars:     Size  Location     Type
  1755 ;;		None
  1756 ;; Return value:  Size  Location     Type
  1757 ;;                  1    wreg      void 
  1758 ;; Registers used:
  1759 ;;		wreg, status,2, status,0, pclath, cstack
  1760 ;; Tracked objects:
  1761 ;;		On entry : 0/0
  1762 ;;		On exit  : 0/0
  1763 ;;		Unchanged: 0/0
  1764 ;; Data sizes:     COMMON   BANK0   BANK1   BANK2   BANK3   BANK4   BANK5   BANK6   BANK7   BANK8   BANK9  BANK10  BANK1
      +1  BANK12
  1765 ;;      Params:         0       0       0       0       0       0       0       0       0       0       0       0       
      +0       0
  1766 ;;      Locals:         0       0       0       0       0       0       0       0       0       0       0       0       
      +0       0
  1767 ;;      Temps:          0       0       0       0       0       0       0       0       0       0       0       0       
      +0       0
  1768 ;;      Totals:         0       0       0       0       0       0       0       0       0       0       0       0       
      +0       0
  1769 ;;Total ram usage:        0 bytes
  1770 ;; Hardware stack levels used:    1
  1771 ;; Hardware stack levels required when called:    3
  1772 ;; This function calls:
  1773 ;;		_ESC_monitor_Turnon
  1774 ;;		_I2C_Turnon
  1775 ;;		_Switch_Turnon
  1776 ;; This function is called by:
  1777 ;;		_goToBed
  1778 ;;		_main
  1779 ;; This function uses a non-reentrant model
  1780 ;;
  1781                           
  1782                           
  1783                           ;psect for function _Turnon
  1784  0510                     _Turnon:	
  1785                           
  1786                           ;main.c: 277:     PMD0 = 0x7e;
  1787                           
  1788                           ;incstack = 0
  1789                           ; Regs used in _Turnon: [wreg+status,2+status,0+pclath+cstack]
  1790  0510  307E               	movlw	126
  1791  0511  014F               	movlb	15	; select bank15
  1792  0512  0096               	movwf	22	;volatile
  1793                           
  1794                           ;main.c: 278:     PMD1 = 0xfe;
  1795  0513  30FE               	movlw	254
  1796  0514  0097               	movwf	23	;volatile
  1797                           
  1798                           ;main.c: 279:     PMD2 = 0xff;
  1799  0515  30FF               	movlw	255
  1800  0516  0098               	movwf	24	;volatile
  1801                           
  1802                           ;main.c: 280:     PMD3 = 0xff;
  1803  0517  30FF               	movlw	255
  1804  0518  0099               	movwf	25	;volatile
  1805                           
  1806                           ;main.c: 281:     PMD4 = 0xef;
  1807  0519  30EF               	movlw	239
  1808  051A  009A               	movwf	26	;volatile
  1809                           
  1810                           ;main.c: 282:     PMD5 = 0xff;
  1811  051B  30FF               	movlw	255
  1812  051C  009B               	movwf	27	;volatile
  1813                           
  1814                           ;main.c: 283:     OSCFRQ = 5;
  1815  051D  3005               	movlw	5
  1816  051E  0151               	movlb	17	; select bank17
  1817  051F  0093               	movwf	19	;volatile
  1818                           
  1819                           ;main.c: 284:     VREGCONbits.VREGPM = 1;
  1820  0520  0150               	movlb	16	; select bank16
  1821  0521  1492               	bsf	18,1	;volatile
  1822                           
  1823                           ;main.c: 286:     Switch_Turnon();
  1824  0522  3184  24D6  3185   	fcall	_Switch_Turnon
  1825                           
  1826                           ;main.c: 287:     I2C_Turnon();
  1827  0525  3184  24F4  3185   	fcall	_I2C_Turnon
  1828                           
  1829                           ;main.c: 288:     ESC_monitor_Turnon();
  1830  0528  3184  24B0         	fcall	_ESC_monitor_Turnon
  1831  052A  0008               	return
  1832  052B                     __end_of_Turnon:	
  1833                           
  1834                           	psect	text6
  1835  04D6                     __ptext6:	
  1836 ;; *************** function _Switch_Turnon *****************
  1837 ;; Defined at:
  1838 ;;		line 107 in file "main.c"
  1839 ;; Parameters:    Size  Location     Type
  1840 ;;		None
  1841 ;; Auto vars:     Size  Location     Type
  1842 ;;  i               1    1[COMMON] unsigned char 
  1843 ;; Return value:  Size  Location     Type
  1844 ;;                  1    wreg      void 
  1845 ;; Registers used:
  1846 ;;		wreg, status,2, status,0, pclath, cstack
  1847 ;; Tracked objects:
  1848 ;;		On entry : 0/0
  1849 ;;		On exit  : 0/0
  1850 ;;		Unchanged: 0/0
  1851 ;; Data sizes:     COMMON   BANK0   BANK1   BANK2   BANK3   BANK4   BANK5   BANK6   BANK7   BANK8   BANK9  BANK10  BANK1
      +1  BANK12
  1852 ;;      Params:         0       0       0       0       0       0       0       0       0       0       0       0       
      +0       0
  1853 ;;      Locals:         1       0       0       0       0       0       0       0       0       0       0       0       
      +0       0
  1854 ;;      Temps:          1       0       0       0       0       0       0       0       0       0       0       0       
      +0       0
  1855 ;;      Totals:         2       0       0       0       0       0       0       0       0       0       0       0       
      +0       0
  1856 ;;Total ram usage:        2 bytes
  1857 ;; Hardware stack levels used:    1
  1858 ;; Hardware stack levels required when called:    2
  1859 ;; This function calls:
  1860 ;;		_I2C_Turnon
  1861 ;; This function is called by:
  1862 ;;		_Turnon
  1863 ;; This function uses a non-reentrant model
  1864 ;;
  1865                           
  1866                           
  1867                           ;psect for function _Switch_Turnon
  1868  04D6                     _Switch_Turnon:	
  1869                           
  1870                           ;main.c: 109:     Switch_State = 1;
  1871                           
  1872                           ;incstack = 0
  1873                           ; Regs used in _Switch_Turnon: [wreg+status,2+status,0+pclath+cstack]
  1874  04D6  0140               	movlb	0	; select bank0
  1875  04D7  01EE               	clrf	_Switch_State
  1876  04D8  0AEE               	incf	_Switch_State,f
  1877                           
  1878                           ;main.c: 110:     for(unsigned char i = 0; i < 10; i++)
  1879  04D9  01F1               	clrf	Switch_Turnon@i
  1880  04DA  300A               	movlw	10
  1881  04DB  0271               	subwf	Switch_Turnon@i,w
  1882  04DC  1803               	btfsc	3,0
  1883  04DD  2CF0               	goto	l131
  1884                           
  1885                           ;main.c: 111:         LATAbits.LATA2 = !LATAbits.LATA2;
  1886  04DE  1003               	clrc
  1887  04DF                     L1:	
  1888  04DF  1D18               	btfss	24,2	;volatile
  1889  04E0  1403               	setc
  1890  04E1  1C03               	btfss	3,0
  1891  04E2  2CE6               	goto	u890
  1892  04E3  0140               	movlb	0	; select bank0
  1893  04E4  1518               	bsf	24,2	;volatile
  1894  04E5  2CE8               	goto	l1203
  1895  04E6                     u890:	
  1896  04E6  0140               	movlb	0	; select bank0
  1897  04E7  1118               	bcf	24,2	;volatile
  1898  04E8                     l1203:	
  1899  04E8  3001               	movlw	1
  1900  04E9  00F0               	movwf	??_Switch_Turnon
  1901  04EA  0870               	movf	??_Switch_Turnon,w
  1902  04EB  07F1               	addwf	Switch_Turnon@i,f
  1903  04EC  300A               	movlw	10
  1904  04ED  0271               	subwf	Switch_Turnon@i,w
  1905  04EE  1C03               	skipc
  1906  04EF  2CDF               	goto	L1
  1907  04F0                     l131:	
  1908                           
  1909                           ;main.c: 112:     LATAbits.LATA4 = 1;
  1910  04F0  1618               	bsf	24,4	;volatile
  1911                           
  1912                           ;main.c: 114:     I2C_Turnon();
  1913  04F1  3184  24F4         	fcall	_I2C_Turnon
  1914  04F3  0008               	return
  1915  04F4                     __end_of_Switch_Turnon:	
  1916                           
  1917                           	psect	text7
  1918  04F4                     __ptext7:	
  1919 ;; *************** function _I2C_Turnon *****************
  1920 ;; Defined at:
  1921 ;;		line 86 in file "main.c"
  1922 ;; Parameters:    Size  Location     Type
  1923 ;;		None
  1924 ;; Auto vars:     Size  Location     Type
  1925 ;;		None
  1926 ;; Return value:  Size  Location     Type
  1927 ;;                  1    wreg      void 
  1928 ;; Registers used:
  1929 ;;		wreg, status,2, status,0
  1930 ;; Tracked objects:
  1931 ;;		On entry : 0/0
  1932 ;;		On exit  : 0/0
  1933 ;;		Unchanged: 0/0
  1934 ;; Data sizes:     COMMON   BANK0   BANK1   BANK2   BANK3   BANK4   BANK5   BANK6   BANK7   BANK8   BANK9  BANK10  BANK1
      +1  BANK12
  1935 ;;      Params:         0       0       0       0       0       0       0       0       0       0       0       0       
      +0       0
  1936 ;;      Locals:         0       0       0       0       0       0       0       0       0       0       0       0       
      +0       0
  1937 ;;      Temps:          0       0       0       0       0       0       0       0       0       0       0       0       
      +0       0
  1938 ;;      Totals:         0       0       0       0       0       0       0       0       0       0       0       0       
      +0       0
  1939 ;;Total ram usage:        0 bytes
  1940 ;; Hardware stack levels used:    1
  1941 ;; Hardware stack levels required when called:    1
  1942 ;; This function calls:
  1943 ;;		Nothing
  1944 ;; This function is called by:
  1945 ;;		_Switch_Turnon
  1946 ;;		_Turnon
  1947 ;; This function uses a non-reentrant model
  1948 ;;
  1949                           
  1950                           
  1951                           ;psect for function _I2C_Turnon
  1952  04F4                     _I2C_Turnon:	
  1953                           
  1954                           ;main.c: 88:     TRISBbits.TRISB1 = 1;
  1955                           
  1956                           ;incstack = 0
  1957                           ; Regs used in _I2C_Turnon: [wreg+status,2+status,0]
  1958  04F4  0140               	movlb	0	; select bank0
  1959  04F5  1493               	bsf	19,1	;volatile
  1960                           
  1961                           ;main.c: 89:     TRISBbits.TRISB2 = 1;
  1962  04F6  1513               	bsf	19,2	;volatile
  1963                           
  1964                           ;main.c: 91:     SSP2STATbits.SMP = 0;
  1965  04F7  0143               	movlb	3	; select bank3
  1966  04F8  1399               	bcf	25,7	;volatile
  1967                           
  1968                           ;main.c: 92:     SSP2CON1bits.SSPM = 0xe;
  1969  04F9  081A               	movf	26,w	;volatile
  1970  04FA  39F0               	andlw	-16
  1971  04FB  380E               	iorlw	14
  1972  04FC  009A               	movwf	26	;volatile
  1973                           
  1974                           ;main.c: 93:     SSP2CON2bits.SEN = 0;
  1975  04FD  101B               	bcf	27,0	;volatile
  1976                           
  1977                           ;main.c: 94:     SSP2CON3bits.AHEN = 0;
  1978  04FE  109C               	bcf	28,1	;volatile
  1979                           
  1980                           ;main.c: 95:     SSP2CON3bits.DHEN = 0;
  1981  04FF  101C               	bcf	28,0	;volatile
  1982                           
  1983                           ;main.c: 96:     SSP2CON3bits.SCIE = 0;
  1984  0500  129C               	bcf	28,5	;volatile
  1985                           
  1986                           ;main.c: 97:     SSP2CON3bits.PCIE = 1;
  1987  0501  171C               	bsf	28,6	;volatile
  1988                           
  1989                           ;main.c: 98:     SSP2CON3bits.BOEN = 1;
  1990  0502  161C               	bsf	28,4	;volatile
  1991                           
  1992                           ;main.c: 99:     SSP2CON1bits.CKP = 1;
  1993  0503  161A               	bsf	26,4	;volatile
  1994                           
  1995                           ;main.c: 100:     PIR3bits.SSP2IF = 0;
  1996  0504  014E               	movlb	14	; select bank14
  1997  0505  110F               	bcf	15,2	;volatile
  1998                           
  1999                           ;main.c: 101:     SSP2ADD = 0x12<<1;
  2000  0506  3024               	movlw	36
  2001  0507  0143               	movlb	3	; select bank3
  2002  0508  0097               	movwf	23	;volatile
  2003                           
  2004                           ;main.c: 102:     SSP2MSK = 0xFF;
  2005  0509  30FF               	movlw	255
  2006  050A  0098               	movwf	24	;volatile
  2007                           
  2008                           ;main.c: 103:     ANSELB = 0;
  2009  050B  017E               	movlb	62	; select bank62
  2010  050C  01C3               	clrf	67	;volatile
  2011                           
  2012                           ;main.c: 104:     SSP2CON1bits.SSPEN = 1;
  2013  050D  0143               	movlb	3	; select bank3
  2014  050E  169A               	bsf	26,5	;volatile
  2015  050F  0008               	return
  2016  0510                     __end_of_I2C_Turnon:	
  2017                           
  2018                           	psect	text8
  2019  04B0                     __ptext8:	
  2020 ;; *************** function _ESC_monitor_Turnon *****************
  2021 ;; Defined at:
  2022 ;;		line 161 in file "main.c"
  2023 ;; Parameters:    Size  Location     Type
  2024 ;;		None
  2025 ;; Auto vars:     Size  Location     Type
  2026 ;;		None
  2027 ;; Return value:  Size  Location     Type
  2028 ;;                  1    wreg      void 
  2029 ;; Registers used:
  2030 ;;		wreg, status,2, status,0
  2031 ;; Tracked objects:
  2032 ;;		On entry : 0/0
  2033 ;;		On exit  : 0/0
  2034 ;;		Unchanged: 0/0
  2035 ;; Data sizes:     COMMON   BANK0   BANK1   BANK2   BANK3   BANK4   BANK5   BANK6   BANK7   BANK8   BANK9  BANK10  BANK1
      +1  BANK12
  2036 ;;      Params:         0       0       0       0       0       0       0       0       0       0       0       0       
      +0       0
  2037 ;;      Locals:         0       0       0       0       0       0       0       0       0       0       0       0       
      +0       0
  2038 ;;      Temps:          0       0       0       0       0       0       0       0       0       0       0       0       
      +0       0
  2039 ;;      Totals:         0       0       0       0       0       0       0       0       0       0       0       0       
      +0       0
  2040 ;;Total ram usage:        0 bytes
  2041 ;; Hardware stack levels used:    1
  2042 ;; Hardware stack levels required when called:    1
  2043 ;; This function calls:
  2044 ;;		Nothing
  2045 ;; This function is called by:
  2046 ;;		_Turnon
  2047 ;; This function uses a non-reentrant model
  2048 ;;
  2049                           
  2050                           
  2051                           ;psect for function _ESC_monitor_Turnon
  2052  04B0                     _ESC_monitor_Turnon:	
  2053                           
  2054                           ;main.c: 163:     TRISBbits.TRISB3 = 1;
  2055                           
  2056                           ;incstack = 0
  2057                           ; Regs used in _ESC_monitor_Turnon: [wreg+status,2+status,0]
  2058  04B0  0140               	movlb	0	; select bank0
  2059  04B1  1593               	bsf	19,3	;volatile
  2060                           
  2061                           ;main.c: 165:     ANSELB = 0;
  2062  04B2  017E               	movlb	62	; select bank62
  2063  04B3  01C3               	clrf	67	;volatile
  2064                           
  2065                           ;main.c: 166:     IOCBP |= 0x08;
  2066  04B4  15C8               	bsf	72,3	;volatile
  2067                           
  2068                           ;main.c: 167:     IOCBN |= 0x08;
  2069  04B5  15C9               	bsf	73,3	;volatile
  2070                           
  2071                           ;main.c: 168:     PIR0bits.IOCIF = 0;
  2072  04B6  014E               	movlb	14	; select bank14
  2073  04B7  120C               	bcf	12,4	;volatile
  2074                           
  2075                           ;main.c: 169:     PIE0bits.IOCIE = 1;
  2076  04B8  1616               	bsf	22,4	;volatile
  2077                           
  2078                           ;main.c: 170:     ESC_period_low = 0;
  2079  04B9  0140               	movlb	0	; select bank0
  2080  04BA  01C6               	clrf	_ESC_period_low
  2081  04BB  01C7               	clrf	_ESC_period_low+1
  2082                           
  2083                           ;main.c: 171:     ESC_period_high = 0;
  2084  04BC  01C4               	clrf	_ESC_period_high
  2085  04BD  01C5               	clrf	_ESC_period_high+1
  2086                           
  2087                           ;main.c: 173:     T0CON0bits.T0EN = 0;
  2088  04BE  014B               	movlb	11	; select bank11
  2089  04BF  139E               	bcf	30,7	;volatile
  2090                           
  2091                           ;main.c: 174:     T0CON0bits.T016BIT = 1;
  2092  04C0  161E               	bsf	30,4	;volatile
  2093                           
  2094                           ;main.c: 175:     T0CON1bits.T0CS = 2;
  2095  04C1  081F               	movf	31,w	;volatile
  2096  04C2  391F               	andlw	-225
  2097  04C3  3840               	iorlw	64
  2098  04C4  009F               	movwf	31	;volatile
  2099                           
  2100                           ;main.c: 176:     T0CON1bits.T0CKPS = 2;
  2101  04C5  081F               	movf	31,w	;volatile
  2102  04C6  39F0               	andlw	-16
  2103  04C7  3802               	iorlw	2
  2104  04C8  009F               	movwf	31	;volatile
  2105                           
  2106                           ;main.c: 177:     TMR0H = 0xD0;
  2107  04C9  30D0               	movlw	208
  2108  04CA  009D               	movwf	29	;volatile
  2109                           
  2110                           ;main.c: 178:     TMR0L = 0x00;
  2111  04CB  019C               	clrf	28	;volatile
  2112                           
  2113                           ;main.c: 180:     PIR0bits.TMR0IF = 0;
  2114  04CC  014E               	movlb	14	; select bank14
  2115  04CD  128C               	bcf	12,5	;volatile
  2116                           
  2117                           ;main.c: 181:     PIE0bits.TMR0IE = 1;
  2118  04CE  1696               	bsf	22,5	;volatile
  2119                           
  2120                           ;main.c: 182:     T0CON0bits.T0EN = 1;
  2121  04CF  014B               	movlb	11	; select bank11
  2122  04D0  179E               	bsf	30,7	;volatile
  2123                           
  2124                           ;main.c: 184:     ESC_valid_consecutive_periods_counter = 0;
  2125  04D1  0140               	movlb	0	; select bank0
  2126  04D2  01C2               	clrf	_ESC_valid_consecutive_periods_counter
  2127  04D3  01C3               	clrf	_ESC_valid_consecutive_periods_counter+1
  2128                           
  2129                           ;main.c: 185:     ESC_period_over = 0;
  2130  04D4  01CB               	clrf	_ESC_period_over
  2131  04D5  0008               	return
  2132  04D6                     __end_of_ESC_monitor_Turnon:	
  2133                           
  2134                           	psect	text9
  2135  052B                     __ptext9:	
  2136 ;; *************** function _Turnoff *****************
  2137 ;; Defined at:
  2138 ;;		line 291 in file "main.c"
  2139 ;; Parameters:    Size  Location     Type
  2140 ;;		None
  2141 ;; Auto vars:     Size  Location     Type
  2142 ;;		None
  2143 ;; Return value:  Size  Location     Type
  2144 ;;                  1    wreg      void 
  2145 ;; Registers used:
  2146 ;;		wreg, status,2, status,0, pclath, cstack
  2147 ;; Tracked objects:
  2148 ;;		On entry : 0/0
  2149 ;;		On exit  : 0/0
  2150 ;;		Unchanged: 0/0
  2151 ;; Data sizes:     COMMON   BANK0   BANK1   BANK2   BANK3   BANK4   BANK5   BANK6   BANK7   BANK8   BANK9  BANK10  BANK1
      +1  BANK12
  2152 ;;      Params:         0       0       0       0       0       0       0       0       0       0       0       0       
      +0       0
  2153 ;;      Locals:         0       0       0       0       0       0       0       0       0       0       0       0       
      +0       0
  2154 ;;      Temps:          0       0       0       0       0       0       0       0       0       0       0       0       
      +0       0
  2155 ;;      Totals:         0       0       0       0       0       0       0       0       0       0       0       0       
      +0       0
  2156 ;;Total ram usage:        0 bytes
  2157 ;; Hardware stack levels used:    1
  2158 ;; Hardware stack levels required when called:    2
  2159 ;; This function calls:
  2160 ;;		_ESC_monitor_Turnoff
  2161 ;;		_Switch_Turnoff
  2162 ;; This function is called by:
  2163 ;;		_goToBed
  2164 ;;		_main
  2165 ;; This function uses a non-reentrant model
  2166 ;;
  2167                           
  2168                           
  2169                           ;psect for function _Turnoff
  2170  052B                     _Turnoff:	
  2171                           
  2172                           ;main.c: 293:     ESC_monitor_Turnoff();
  2173                           
  2174                           ;incstack = 0
  2175                           ; Regs used in _Turnoff: [wreg+status,2+status,0+pclath+cstack]
  2176  052B  3185  2580  3185   	fcall	_ESC_monitor_Turnoff
  2177                           
  2178                           ;main.c: 294:     Switch_Turnoff();
  2179  052E  3185  2558         	fcall	_Switch_Turnoff
  2180                           
  2181                           ;main.c: 295:     PMD0 = 0x7f;
  2182  0530  307F               	movlw	127
  2183  0531  014F               	movlb	15	; select bank15
  2184  0532  0096               	movwf	22	;volatile
  2185                           
  2186                           ;main.c: 296:     PMD1 = 0xff;
  2187  0533  30FF               	movlw	255
  2188  0534  0097               	movwf	23	;volatile
  2189                           
  2190                           ;main.c: 297:     PMD2 = 0xff;
  2191  0535  30FF               	movlw	255
  2192  0536  0098               	movwf	24	;volatile
  2193                           
  2194                           ;main.c: 298:     PMD3 = 0xff;
  2195  0537  30FF               	movlw	255
  2196  0538  0099               	movwf	25	;volatile
  2197                           
  2198                           ;main.c: 299:     PMD4 = 0xff;
  2199  0539  30FF               	movlw	255
  2200  053A  009A               	movwf	26	;volatile
  2201                           
  2202                           ;main.c: 300:     PMD5 = 0xff;
  2203  053B  30FF               	movlw	255
  2204  053C  009B               	movwf	27	;volatile
  2205                           
  2206                           ;main.c: 301:     OSCFRQ = 2;
  2207  053D  3002               	movlw	2
  2208  053E  0151               	movlb	17	; select bank17
  2209  053F  0093               	movwf	19	;volatile
  2210                           
  2211                           ;main.c: 302:     VREGCONbits.VREGPM = 1;
  2212  0540  0150               	movlb	16	; select bank16
  2213  0541  1492               	bsf	18,1	;volatile
  2214  0542  0008               	return
  2215  0543                     __end_of_Turnoff:	
  2216                           
  2217                           	psect	text10
  2218  0558                     __ptext10:	
  2219 ;; *************** function _Switch_Turnoff *****************
  2220 ;; Defined at:
  2221 ;;		line 117 in file "main.c"
  2222 ;; Parameters:    Size  Location     Type
  2223 ;;		None
  2224 ;; Auto vars:     Size  Location     Type
  2225 ;;  i               1    1[COMMON] unsigned char 
  2226 ;; Return value:  Size  Location     Type
  2227 ;;                  1    wreg      void 
  2228 ;; Registers used:
  2229 ;;		wreg, status,2, status,0
  2230 ;; Tracked objects:
  2231 ;;		On entry : 0/0
  2232 ;;		On exit  : 0/0
  2233 ;;		Unchanged: 0/0
  2234 ;; Data sizes:     COMMON   BANK0   BANK1   BANK2   BANK3   BANK4   BANK5   BANK6   BANK7   BANK8   BANK9  BANK10  BANK1
      +1  BANK12
  2235 ;;      Params:         0       0       0       0       0       0       0       0       0       0       0       0       
      +0       0
  2236 ;;      Locals:         1       0       0       0       0       0       0       0       0       0       0       0       
      +0       0
  2237 ;;      Temps:          1       0       0       0       0       0       0       0       0       0       0       0       
      +0       0
  2238 ;;      Totals:         2       0       0       0       0       0       0       0       0       0       0       0       
      +0       0
  2239 ;;Total ram usage:        2 bytes
  2240 ;; Hardware stack levels used:    1
  2241 ;; Hardware stack levels required when called:    1
  2242 ;; This function calls:
  2243 ;;		Nothing
  2244 ;; This function is called by:
  2245 ;;		_Turnoff
  2246 ;; This function uses a non-reentrant model
  2247 ;;
  2248                           
  2249                           
  2250                           ;psect for function _Switch_Turnoff
  2251  0558                     _Switch_Turnoff:	
  2252                           
  2253                           ;main.c: 119:     LATAbits.LATA2 = 0;
  2254                           
  2255                           ;incstack = 0
  2256                           ; Regs used in _Switch_Turnoff: [wreg+status,2+status,0]
  2257  0558  0140               	movlb	0	; select bank0
  2258  0559  1118               	bcf	24,2	;volatile
  2259                           
  2260                           ;main.c: 120:     LATAbits.LATA4 = 0;
  2261  055A  1218               	bcf	24,4	;volatile
  2262                           
  2263                           ;main.c: 121:     LATAbits.LATA5 = 1;
  2264  055B  1698               	bsf	24,5	;volatile
  2265                           
  2266                           ;main.c: 122:     Switch_State = 0;
  2267  055C  01EE               	clrf	_Switch_State
  2268                           
  2269                           ;main.c: 123:     for (unsigned char i = 0; i<255; i++);
  2270  055D  01F1               	clrf	Switch_Turnoff@i
  2271  055E  0A71               	incf	Switch_Turnoff@i,w
  2272  055F  1903               	btfsc	3,2
  2273  0560  2D68               	goto	l136
  2274  0561                     l1217:	
  2275  0561  3001               	movlw	1
  2276  0562  00F0               	movwf	??_Switch_Turnoff
  2277  0563  0870               	movf	??_Switch_Turnoff,w
  2278  0564  07F1               	addwf	Switch_Turnoff@i,f
  2279  0565  0A71               	incf	Switch_Turnoff@i,w
  2280  0566  1D03               	btfss	3,2
  2281  0567  2D61               	goto	l1217
  2282  0568                     l136:	
  2283                           
  2284                           ;main.c: 124:     LATAbits.LATA5 = 0;
  2285  0568  0140               	movlb	0	; select bank0
  2286  0569  1298               	bcf	24,5	;volatile
  2287  056A  0008               	return
  2288  056B                     __end_of_Switch_Turnoff:	
  2289                           
  2290                           	psect	text11
  2291  0580                     __ptext11:	
  2292 ;; *************** function _ESC_monitor_Turnoff *****************
  2293 ;; Defined at:
  2294 ;;		line 189 in file "main.c"
  2295 ;; Parameters:    Size  Location     Type
  2296 ;;		None
  2297 ;; Auto vars:     Size  Location     Type
  2298 ;;		None
  2299 ;; Return value:  Size  Location     Type
  2300 ;;                  1    wreg      void 
  2301 ;; Registers used:
  2302 ;;		None
  2303 ;; Tracked objects:
  2304 ;;		On entry : 0/0
  2305 ;;		On exit  : 0/0
  2306 ;;		Unchanged: 0/0
  2307 ;; Data sizes:     COMMON   BANK0   BANK1   BANK2   BANK3   BANK4   BANK5   BANK6   BANK7   BANK8   BANK9  BANK10  BANK1
      +1  BANK12
  2308 ;;      Params:         0       0       0       0       0       0       0       0       0       0       0       0       
      +0       0
  2309 ;;      Locals:         0       0       0       0       0       0       0       0       0       0       0       0       
      +0       0
  2310 ;;      Temps:          0       0       0       0       0       0       0       0       0       0       0       0       
      +0       0
  2311 ;;      Totals:         0       0       0       0       0       0       0       0       0       0       0       0       
      +0       0
  2312 ;;Total ram usage:        0 bytes
  2313 ;; Hardware stack levels used:    1
  2314 ;; Hardware stack levels required when called:    1
  2315 ;; This function calls:
  2316 ;;		Nothing
  2317 ;; This function is called by:
  2318 ;;		_Turnoff
  2319 ;; This function uses a non-reentrant model
  2320 ;;
  2321                           
  2322                           
  2323                           ;psect for function _ESC_monitor_Turnoff
  2324  0580                     _ESC_monitor_Turnoff:	
  2325                           
  2326                           ;main.c: 191:     PIE0bits.IOCIE = 0;
  2327                           
  2328                           ;incstack = 0
  2329                           ; Regs used in _ESC_monitor_Turnoff: []
  2330  0580  014E               	movlb	14	; select bank14
  2331  0581  1216               	bcf	22,4	;volatile
  2332                           
  2333                           ;main.c: 192:     PIE0bits.TMR0IE = 0;
  2334  0582  1296               	bcf	22,5	;volatile
  2335                           
  2336                           ;main.c: 193:     T0CON0bits.T0EN = 0;
  2337  0583  014B               	movlb	11	; select bank11
  2338  0584  139E               	bcf	30,7	;volatile
  2339  0585  0008               	return
  2340  0586                     __end_of_ESC_monitor_Turnoff:	
  2341                           
  2342                           	psect	text12
  2343  03A3                     __ptext12:	
  2344 ;; *************** function _ESC_monitor_Manage *****************
  2345 ;; Defined at:
  2346 ;;		line 232 in file "main.c"
  2347 ;; Parameters:    Size  Location     Type
  2348 ;;		None
  2349 ;; Auto vars:     Size  Location     Type
  2350 ;;		None
  2351 ;; Return value:  Size  Location     Type
  2352 ;;                  1    wreg      void 
  2353 ;; Registers used:
  2354 ;;		wreg, status,2, status,0, pclath, cstack
  2355 ;; Tracked objects:
  2356 ;;		On entry : 0/0
  2357 ;;		On exit  : 0/0
  2358 ;;		Unchanged: 0/0
  2359 ;; Data sizes:     COMMON   BANK0   BANK1   BANK2   BANK3   BANK4   BANK5   BANK6   BANK7   BANK8   BANK9  BANK10  BANK1
      +1  BANK12
  2360 ;;      Params:         0       0       0       0       0       0       0       0       0       0       0       0       
      +0       0
  2361 ;;      Locals:         0       0       0       0       0       0       0       0       0       0       0       0       
      +0       0
  2362 ;;      Temps:          0       0       0       0       0       0       0       0       0       0       0       0       
      +0       0
  2363 ;;      Totals:         0       0       0       0       0       0       0       0       0       0       0       0       
      +0       0
  2364 ;;Total ram usage:        0 bytes
  2365 ;; Hardware stack levels used:    1
  2366 ;; Hardware stack levels required when called:    2
  2367 ;; This function calls:
  2368 ;;		___fldiv
  2369 ;;		___flge
  2370 ;;		___xxtofl
  2371 ;; This function is called by:
  2372 ;;		_main
  2373 ;; This function uses a non-reentrant model
  2374 ;;
  2375                           
  2376                           
  2377                           ;psect for function _ESC_monitor_Manage
  2378  03A3                     _ESC_monitor_Manage:	
  2379                           
  2380                           ;main.c: 234:     if(ESC_period_over == 1)
  2381                           
  2382                           ;incstack = 0
  2383                           ; Regs used in _ESC_monitor_Manage: [wreg+status,2+status,0+pclath+cstack]
  2384  03A3  0140               	movlb	0	; select bank0
  2385  03A4  034B               	decf	_ESC_period_over,w
  2386  03A5  1D03               	btfss	3,2
  2387  03A6  0008               	return
  2388                           
  2389                           ;main.c: 235:     {;main.c: 236:         ESC_period_high_bkp = ESC_period_high - 0xD000;
  2390  03A7  0844               	movf	_ESC_period_high,w
  2391  03A8  3E00               	addlw	0
  2392  03A9  00C0               	movwf	_ESC_period_high_bkp
  2393  03AA  3030               	movlw	48
  2394  03AB  3D45               	addwfc	_ESC_period_high+1,w
  2395  03AC  00C1               	movwf	_ESC_period_high_bkp+1
  2396                           
  2397                           ;main.c: 237:         ESC_period_low_bkp = ESC_period_low - 0xD000;
  2398  03AD  0846               	movf	_ESC_period_low,w
  2399  03AE  3E00               	addlw	0
  2400  03AF  00BE               	movwf	_ESC_period_low_bkp
  2401  03B0  3030               	movlw	48
  2402  03B1  3D47               	addwfc	_ESC_period_low+1,w
  2403  03B2  00BF               	movwf	_ESC_period_low_bkp+1
  2404                           
  2405                           ;main.c: 238:         ESC_period_total = ESC_period_high_bkp + ESC_period_low_bkp;
  2406  03B3  083E               	movf	_ESC_period_low_bkp,w
  2407  03B4  0740               	addwf	_ESC_period_high_bkp,w
  2408  03B5  00BC               	movwf	_ESC_period_total
  2409  03B6  083F               	movf	_ESC_period_low_bkp+1,w
  2410  03B7  3D41               	addwfc	_ESC_period_high_bkp+1,w
  2411  03B8  00BD               	movwf	_ESC_period_total+1
  2412                           
  2413                           ;main.c: 240:         ESC_period_over = 0;
  2414  03B9  01CB               	clrf	_ESC_period_over
  2415                           
  2416                           ;main.c: 242:         temps_on = ESC_period_high_bkp;
  2417  03BA  0840               	movf	_ESC_period_high_bkp,w
  2418  03BB  00B4               	movwf	_temps_on
  2419  03BC  0841               	movf	_ESC_period_high_bkp+1,w
  2420  03BD  00B5               	movwf	_temps_on+1
  2421  03BE  01B6               	clrf	_temps_on+2
  2422  03BF  01B7               	clrf	_temps_on+3
  2423                           
  2424                           ;main.c: 243:         temps_off = ESC_period_low_bkp;
  2425  03C0  083E               	movf	_ESC_period_low_bkp,w
  2426  03C1  00B0               	movwf	_temps_off
  2427  03C2  083F               	movf	_ESC_period_low_bkp+1,w
  2428  03C3  00B1               	movwf	_temps_off+1
  2429  03C4  01B2               	clrf	_temps_off+2
  2430  03C5  01B3               	clrf	_temps_off+3
  2431                           
  2432                           ;main.c: 244:         duty_cycle = (float)temps_on / (float)temps_off;
  2433  03C6  0833               	movf	_temps_off+3,w
  2434  03C7  00F3               	movwf	___xxtofl@val+3
  2435  03C8  0832               	movf	_temps_off+2,w
  2436  03C9  00F2               	movwf	___xxtofl@val+2
  2437  03CA  0831               	movf	_temps_off+1,w
  2438  03CB  00F1               	movwf	___xxtofl@val+1
  2439  03CC  0830               	movf	_temps_off,w
  2440  03CD  00F0               	movwf	___xxtofl@val
  2441  03CE  3000               	movlw	0
  2442  03CF  3183  230E  3183   	fcall	___xxtofl
  2443  03D2  0873               	movf	?___xxtofl+3,w
  2444  03D3  0140               	movlb	0	; select bank0
  2445  03D4  00D3               	movwf	___fldiv@a+3
  2446  03D5  0872               	movf	?___xxtofl+2,w
  2447  03D6  00D2               	movwf	___fldiv@a+2
  2448  03D7  0871               	movf	?___xxtofl+1,w
  2449  03D8  00D1               	movwf	___fldiv@a+1
  2450  03D9  0870               	movf	?___xxtofl,w
  2451  03DA  00D0               	movwf	___fldiv@a
  2452  03DB  0837               	movf	_temps_on+3,w
  2453  03DC  00F3               	movwf	___xxtofl@val+3
  2454  03DD  0836               	movf	_temps_on+2,w
  2455  03DE  00F2               	movwf	___xxtofl@val+2
  2456  03DF  0835               	movf	_temps_on+1,w
  2457  03E0  00F1               	movwf	___xxtofl@val+1
  2458  03E1  0834               	movf	_temps_on,w
  2459  03E2  00F0               	movwf	___xxtofl@val
  2460  03E3  3000               	movlw	0
  2461  03E4  3183  230E  3183   	fcall	___xxtofl
  2462  03E7  0873               	movf	?___xxtofl+3,w
  2463  03E8  0140               	movlb	0	; select bank0
  2464  03E9  00D7               	movwf	___fldiv@b+3
  2465  03EA  0872               	movf	?___xxtofl+2,w
  2466  03EB  00D6               	movwf	___fldiv@b+2
  2467  03EC  0871               	movf	?___xxtofl+1,w
  2468  03ED  00D5               	movwf	___fldiv@b+1
  2469  03EE  0870               	movf	?___xxtofl,w
  2470  03EF  00D4               	movwf	___fldiv@b
  2471  03F0  3180  2049  3183   	fcall	___fldiv
  2472  03F3  0140               	movlb	0	; select bank0
  2473  03F4  0853               	movf	?___fldiv+3,w
  2474  03F5  00BB               	movwf	_duty_cycle+3
  2475  03F6  0852               	movf	?___fldiv+2,w
  2476  03F7  00BA               	movwf	_duty_cycle+2
  2477  03F8  0851               	movf	?___fldiv+1,w
  2478  03F9  00B9               	movwf	_duty_cycle+1
  2479  03FA  0850               	movf	?___fldiv,w
  2480  03FB  00B8               	movwf	_duty_cycle
  2481                           
  2482                           ;main.c: 246:         if(duty_cycle <= maxDodo)
  2483  03FC  086D               	movf	_maxDodo+3,w
  2484  03FD  00F3               	movwf	___flge@ff1+3
  2485  03FE  086C               	movf	_maxDodo+2,w
  2486  03FF  00F2               	movwf	___flge@ff1+2
  2487  0400  086B               	movf	_maxDodo+1,w
  2488  0401  00F1               	movwf	___flge@ff1+1
  2489  0402  086A               	movf	_maxDodo,w
  2490  0403  00F0               	movwf	___flge@ff1
  2491  0404  083B               	movf	_duty_cycle+3,w
  2492  0405  00F7               	movwf	___flge@ff2+3
  2493  0406  083A               	movf	_duty_cycle+2,w
  2494  0407  00F6               	movwf	___flge@ff2+2
  2495  0408  0839               	movf	_duty_cycle+1,w
  2496  0409  00F5               	movwf	___flge@ff2+1
  2497  040A  0838               	movf	_duty_cycle,w
  2498  040B  00F4               	movwf	___flge@ff2
  2499  040C  3181  21DC  3183   	fcall	___flge
  2500  040F  1C03               	btfss	3,0
  2501  0410  2C26               	goto	l1585
  2502                           
  2503                           ;main.c: 247:         {;main.c: 248:             if(ESC_valid_consecutive_periods_counte
      +                          r<50)
  2504  0411  3000               	movlw	0
  2505  0412  0140               	movlb	0	; select bank0
  2506  0413  0243               	subwf	_ESC_valid_consecutive_periods_counter+1,w
  2507  0414  3032               	movlw	50
  2508  0415  1903               	skipnz
  2509  0416  0242               	subwf	_ESC_valid_consecutive_periods_counter,w
  2510  0417  1803               	skipnc
  2511  0418  2C1F               	goto	l1581
  2512                           
  2513                           ;main.c: 249:             {;main.c: 250:                 ESC_valid_consecutive_periods_c
      +                          ounter++;
  2514  0419  3001               	movlw	1
  2515  041A  07C2               	addwf	_ESC_valid_consecutive_periods_counter,f
  2516  041B  3000               	movlw	0
  2517  041C  3DC3               	addwfc	_ESC_valid_consecutive_periods_counter+1,f
  2518                           
  2519                           ;main.c: 251:                 turnoffAllowed = 0;
  2520  041D  01C8               	clrf	_turnoffAllowed
  2521                           
  2522                           ;main.c: 252:             }
  2523  041E  0008               	return
  2524  041F                     l1581:	
  2525                           ;main.c: 253:             else
  2526                           
  2527                           
  2528                           ;main.c: 254:             {;main.c: 255:                 ESC_valid_consecutive_periods_c
      +                          ounter = 50;
  2529  041F  3032               	movlw	50
  2530  0420  00C2               	movwf	_ESC_valid_consecutive_periods_counter
  2531  0421  3000               	movlw	0
  2532  0422  00C3               	movwf	_ESC_valid_consecutive_periods_counter+1
  2533                           
  2534                           ;main.c: 256:                 turnoffAllowed = 1;
  2535  0423  01C8               	clrf	_turnoffAllowed
  2536  0424  0AC8               	incf	_turnoffAllowed,f
  2537                           
  2538                           ;main.c: 258:         }
  2539                           
  2540                           ;main.c: 257:             }
  2541  0425  0008               	return
  2542  0426                     l1585:	
  2543                           ;main.c: 259:         else
  2544                           
  2545                           
  2546                           ;main.c: 260:         {;main.c: 261:             ESC_valid_consecutive_periods_counter =
      +                           0;
  2547  0426  0140               	movlb	0	; select bank0
  2548  0427  01C2               	clrf	_ESC_valid_consecutive_periods_counter
  2549  0428  01C3               	clrf	_ESC_valid_consecutive_periods_counter+1
  2550                           
  2551                           ;main.c: 262:             turnoffAllowed = 0;
  2552  0429  01C8               	clrf	_turnoffAllowed
  2553                           
  2554                           ;main.c: 263:         }
  2555  042A  0008               	return
  2556  042B                     __end_of_ESC_monitor_Manage:	
  2557                           ;main.c: 264:     }
  2558                           
  2559                           
  2560                           	psect	text13
  2561  030E                     __ptext13:	
  2562 ;; *************** function ___xxtofl *****************
  2563 ;; Defined at:
  2564 ;;		line 10 in file "/opt/microchip/xc8/v2.00/pic/sources/c99/common/xxtofl.c"
  2565 ;; Parameters:    Size  Location     Type
  2566 ;;  sign            1    wreg     unsigned char 
  2567 ;;  val             4    0[COMMON] long 
  2568 ;; Auto vars:     Size  Location     Type
  2569 ;;  sign            1    8[COMMON] unsigned char 
  2570 ;;  arg             4   10[COMMON] unsigned long 
  2571 ;;  exp             1    9[COMMON] unsigned char 
  2572 ;; Return value:  Size  Location     Type
  2573 ;;                  4    0[COMMON] unsigned char 
  2574 ;; Registers used:
  2575 ;;		wreg, status,2, status,0
  2576 ;; Tracked objects:
  2577 ;;		On entry : 0/0
  2578 ;;		On exit  : 0/0
  2579 ;;		Unchanged: 0/0
  2580 ;; Data sizes:     COMMON   BANK0   BANK1   BANK2   BANK3   BANK4   BANK5   BANK6   BANK7   BANK8   BANK9  BANK10  BANK1
      +1  BANK12
  2581 ;;      Params:         4       0       0       0       0       0       0       0       0       0       0       0       
      +0       0
  2582 ;;      Locals:         6       0       0       0       0       0       0       0       0       0       0       0       
      +0       0
  2583 ;;      Temps:          4       0       0       0       0       0       0       0       0       0       0       0       
      +0       0
  2584 ;;      Totals:        14       0       0       0       0       0       0       0       0       0       0       0       
      +0       0
  2585 ;;Total ram usage:       14 bytes
  2586 ;; Hardware stack levels used:    1
  2587 ;; Hardware stack levels required when called:    1
  2588 ;; This function calls:
  2589 ;;		Nothing
  2590 ;; This function is called by:
  2591 ;;		_ESC_monitor_Manage
  2592 ;; This function uses a non-reentrant model
  2593 ;;
  2594                           
  2595                           
  2596                           ;psect for function ___xxtofl
  2597  030E                     ___xxtofl:	
  2598                           
  2599                           ;incstack = 0
  2600                           ; Regs used in ___xxtofl: [wreg+status,2+status,0]
  2601                           ;___xxtofl@sign stored from wreg
  2602  030E  00F8               	movwf	___xxtofl@sign
  2603  030F  0878               	movf	___xxtofl@sign,w
  2604  0310  1D03               	btfss	3,2
  2605  0311  1FF3               	btfss	___xxtofl@val+3,7
  2606  0312  2B23               	goto	l1477
  2607  0313  0970               	comf	___xxtofl@val,w
  2608  0314  00FA               	movwf	___xxtofl@arg
  2609  0315  0971               	comf	___xxtofl@val+1,w
  2610  0316  00FB               	movwf	___xxtofl@arg+1
  2611  0317  0972               	comf	___xxtofl@val+2,w
  2612  0318  00FC               	movwf	___xxtofl@arg+2
  2613  0319  0973               	comf	___xxtofl@val+3,w
  2614  031A  00FD               	movwf	___xxtofl@arg+3
  2615  031B  0AFA               	incf	___xxtofl@arg,f
  2616  031C  1903               	skipnz
  2617  031D  0AFB               	incf	___xxtofl@arg+1,f
  2618  031E  1903               	skipnz
  2619  031F  0AFC               	incf	___xxtofl@arg+2,f
  2620  0320  1903               	skipnz
  2621  0321  0AFD               	incf	___xxtofl@arg+3,f
  2622  0322  2B2B               	goto	l626
  2623  0323                     l1477:	
  2624  0323  0873               	movf	___xxtofl@val+3,w
  2625  0324  00FD               	movwf	___xxtofl@arg+3
  2626  0325  0872               	movf	___xxtofl@val+2,w
  2627  0326  00FC               	movwf	___xxtofl@arg+2
  2628  0327  0871               	movf	___xxtofl@val+1,w
  2629  0328  00FB               	movwf	___xxtofl@arg+1
  2630  0329  0870               	movf	___xxtofl@val,w
  2631  032A  00FA               	movwf	___xxtofl@arg
  2632  032B                     l626:	
  2633  032B  0873               	movf	___xxtofl@val+3,w
  2634  032C  0472               	iorwf	___xxtofl@val+2,w
  2635  032D  0471               	iorwf	___xxtofl@val+1,w
  2636  032E  0470               	iorwf	___xxtofl@val,w
  2637  032F  1D03               	skipz
  2638  0330  2B3A               	goto	l1483
  2639  0331  3000               	movlw	0
  2640  0332  00F3               	movwf	?___xxtofl+3
  2641  0333  3000               	movlw	0
  2642  0334  00F2               	movwf	?___xxtofl+2
  2643  0335  3000               	movlw	0
  2644  0336  00F1               	movwf	?___xxtofl+1
  2645  0337  3000               	movlw	0
  2646  0338  00F0               	movwf	?___xxtofl
  2647  0339  0008               	return
  2648  033A                     l1483:	
  2649  033A  3096               	movlw	150
  2650  033B  00F4               	movwf	??___xxtofl
  2651  033C  0874               	movf	??___xxtofl,w
  2652  033D  00F9               	movwf	___xxtofl@exp
  2653  033E                     l1487:	
  2654  033E  30FE               	movlw	254
  2655  033F  057D               	andwf	___xxtofl@arg+3,w
  2656  0340  1903               	btfsc	3,2
  2657  0341  2B61               	goto	l632
  2658  0342  3001               	movlw	1
  2659  0343  00F4               	movwf	??___xxtofl
  2660  0344  0874               	movf	??___xxtofl,w
  2661  0345  07F9               	addwf	___xxtofl@exp,f
  2662  0346  3001               	movlw	1
  2663  0347                     u1385:	
  2664  0347  36FD               	lsrf	___xxtofl@arg+3,f
  2665  0348  0CFC               	rrf	___xxtofl@arg+2,f
  2666  0349  0CFB               	rrf	___xxtofl@arg+1,f
  2667  034A  0CFA               	rrf	___xxtofl@arg,f
  2668  034B  0B89               	decfsz	9,f
  2669  034C  2B47               	goto	u1385
  2670  034D  2B3E               	goto	l1487
  2671  034E                     l1489:	
  2672  034E  3001               	movlw	1
  2673  034F  00F4               	movwf	??___xxtofl
  2674  0350  0874               	movf	??___xxtofl,w
  2675  0351  07F9               	addwf	___xxtofl@exp,f
  2676  0352  3001               	movlw	1
  2677  0353  07FA               	addwf	___xxtofl@arg,f
  2678  0354  3000               	movlw	0
  2679  0355  3DFB               	addwfc	___xxtofl@arg+1,f
  2680  0356  3000               	movlw	0
  2681  0357  3DFC               	addwfc	___xxtofl@arg+2,f
  2682  0358  3000               	movlw	0
  2683  0359  3DFD               	addwfc	___xxtofl@arg+3,f
  2684  035A  3001               	movlw	1
  2685  035B                     u1405:	
  2686  035B  36FD               	lsrf	___xxtofl@arg+3,f
  2687  035C  0CFC               	rrf	___xxtofl@arg+2,f
  2688  035D  0CFB               	rrf	___xxtofl@arg+1,f
  2689  035E  0CFA               	rrf	___xxtofl@arg,f
  2690  035F  0B89               	decfsz	9,f
  2691  0360  2B5B               	goto	u1405
  2692  0361                     l632:	
  2693  0361  30FF               	movlw	255
  2694  0362  057D               	andwf	___xxtofl@arg+3,w
  2695  0363  1903               	btfsc	3,2
  2696  0364  2B6F               	goto	l1497
  2697  0365  2B4E               	goto	l1489
  2698  0366                     l1495:	
  2699  0366  3001               	movlw	1
  2700  0367  02F9               	subwf	___xxtofl@exp,f
  2701  0368  3001               	movlw	1
  2702  0369                     u1425:	
  2703  0369  35FA               	lslf	___xxtofl@arg,f
  2704  036A  0DFB               	rlf	___xxtofl@arg+1,f
  2705  036B  0DFC               	rlf	___xxtofl@arg+2,f
  2706  036C  0DFD               	rlf	___xxtofl@arg+3,f
  2707  036D  0B89               	decfsz	9,f
  2708  036E  2B69               	goto	u1425
  2709  036F                     l1497:	
  2710  036F  1BFC               	btfsc	___xxtofl@arg+2,7
  2711  0370  2B75               	goto	l639
  2712  0371  3002               	movlw	2
  2713  0372  0279               	subwf	___xxtofl@exp,w
  2714  0373  1803               	skipnc
  2715  0374  2B66               	goto	l1495
  2716  0375                     l639:	
  2717  0375  1879               	btfsc	___xxtofl@exp,0
  2718  0376  2B7F               	goto	l640
  2719  0377  30FF               	movlw	255
  2720  0378  05FA               	andwf	___xxtofl@arg,f
  2721  0379  30FF               	movlw	255
  2722  037A  05FB               	andwf	___xxtofl@arg+1,f
  2723  037B  307F               	movlw	127
  2724  037C  05FC               	andwf	___xxtofl@arg+2,f
  2725  037D  30FF               	movlw	255
  2726  037E  05FD               	andwf	___xxtofl@arg+3,f
  2727  037F                     l640:	
  2728  037F  1003               	clrc
  2729  0380  0CF9               	rrf	___xxtofl@exp,f
  2730  0381  0879               	movf	___xxtofl@exp,w
  2731  0382  00F4               	movwf	??___xxtofl
  2732  0383  01F5               	clrf	??___xxtofl+1
  2733  0384  01F6               	clrf	??___xxtofl+2
  2734  0385  01F7               	clrf	??___xxtofl+3
  2735  0386  3018               	movlw	24
  2736  0387                     u1465:	
  2737  0387  35F4               	lslf	??___xxtofl,f
  2738  0388  0DF5               	rlf	??___xxtofl+1,f
  2739  0389  0DF6               	rlf	??___xxtofl+2,f
  2740  038A  0DF7               	rlf	??___xxtofl+3,f
  2741  038B  0B89               	decfsz	9,f
  2742  038C  2B87               	goto	u1465
  2743  038D  0874               	movf	??___xxtofl,w
  2744  038E  04FA               	iorwf	___xxtofl@arg,f
  2745  038F  0875               	movf	??___xxtofl+1,w
  2746  0390  04FB               	iorwf	___xxtofl@arg+1,f
  2747  0391  0876               	movf	??___xxtofl+2,w
  2748  0392  04FC               	iorwf	___xxtofl@arg+2,f
  2749  0393  0877               	movf	??___xxtofl+3,w
  2750  0394  04FD               	iorwf	___xxtofl@arg+3,f
  2751  0395  0878               	movf	___xxtofl@sign,w
  2752  0396  1D03               	btfss	3,2
  2753  0397  1FF3               	btfss	___xxtofl@val+3,7
  2754  0398  2B9A               	goto	l1511
  2755  0399  17FD               	bsf	___xxtofl@arg+3,7
  2756  039A                     l1511:	
  2757  039A  087D               	movf	___xxtofl@arg+3,w
  2758  039B  00F3               	movwf	?___xxtofl+3
  2759  039C  087C               	movf	___xxtofl@arg+2,w
  2760  039D  00F2               	movwf	?___xxtofl+2
  2761  039E  087B               	movf	___xxtofl@arg+1,w
  2762  039F  00F1               	movwf	?___xxtofl+1
  2763  03A0  087A               	movf	___xxtofl@arg,w
  2764  03A1  00F0               	movwf	?___xxtofl
  2765  03A2  0008               	return
  2766  03A3                     __end_of___xxtofl:	
  2767                           
  2768                           	psect	text14
  2769  01DC                     __ptext14:	
  2770 ;; *************** function ___flge *****************
  2771 ;; Defined at:
  2772 ;;		line 4 in file "/opt/microchip/xc8/v2.00/pic/sources/c99/common/flge.c"
  2773 ;; Parameters:    Size  Location     Type
  2774 ;;  ff1             4    0[COMMON] unsigned char 
  2775 ;;  ff2             4    4[COMMON] unsigned char 
  2776 ;; Auto vars:     Size  Location     Type
  2777 ;;		None
  2778 ;; Return value:  Size  Location     Type
  2779 ;;		None               void
  2780 ;; Registers used:
  2781 ;;		wreg, status,2, status,0
  2782 ;; Tracked objects:
  2783 ;;		On entry : 0/0
  2784 ;;		On exit  : 0/0
  2785 ;;		Unchanged: 0/0
  2786 ;; Data sizes:     COMMON   BANK0   BANK1   BANK2   BANK3   BANK4   BANK5   BANK6   BANK7   BANK8   BANK9  BANK10  BANK1
      +1  BANK12
  2787 ;;      Params:         8       0       0       0       0       0       0       0       0       0       0       0       
      +0       0
  2788 ;;      Locals:         0       0       0       0       0       0       0       0       0       0       0       0       
      +0       0
  2789 ;;      Temps:          0       8       0       0       0       0       0       0       0       0       0       0       
      +0       0
  2790 ;;      Totals:         8       8       0       0       0       0       0       0       0       0       0       0       
      +0       0
  2791 ;;Total ram usage:       16 bytes
  2792 ;; Hardware stack levels used:    1
  2793 ;; Hardware stack levels required when called:    1
  2794 ;; This function calls:
  2795 ;;		Nothing
  2796 ;; This function is called by:
  2797 ;;		_ESC_monitor_Manage
  2798 ;; This function uses a non-reentrant model
  2799 ;;
  2800                           
  2801                           
  2802                           ;psect for function ___flge
  2803  01DC                     ___flge:	
  2804                           
  2805                           ;incstack = 0
  2806                           ; Regs used in ___flge: [wreg+status,2+status,0]
  2807  01DC  3000               	movlw	0
  2808  01DD  0570               	andwf	___flge@ff1,w
  2809  01DE  0140               	movlb	0	; select bank0
  2810  01DF  00D0               	movwf	??___flge
  2811  01E0  3000               	movlw	0
  2812  01E1  0571               	andwf	___flge@ff1+1,w
  2813  01E2  00D1               	movwf	??___flge+1
  2814  01E3  3080               	movlw	128
  2815  01E4  0572               	andwf	___flge@ff1+2,w
  2816  01E5  00D2               	movwf	??___flge+2
  2817  01E6  307F               	movlw	127
  2818  01E7  0573               	andwf	___flge@ff1+3,w
  2819  01E8  00D3               	movwf	??___flge+3
  2820  01E9  0853               	movf	??___flge+3,w
  2821  01EA  0452               	iorwf	??___flge+2,w
  2822  01EB  0451               	iorwf	??___flge+1,w
  2823  01EC  0450               	iorwf	??___flge,w
  2824  01ED  1D03               	skipz
  2825  01EE  29F7               	goto	l388
  2826  01EF  3000               	movlw	0
  2827  01F0  00F3               	movwf	___flge@ff1+3
  2828  01F1  3000               	movlw	0
  2829  01F2  00F2               	movwf	___flge@ff1+2
  2830  01F3  3000               	movlw	0
  2831  01F4  00F1               	movwf	___flge@ff1+1
  2832  01F5  3000               	movlw	0
  2833  01F6  00F0               	movwf	___flge@ff1
  2834  01F7                     l388:	
  2835  01F7  3000               	movlw	0
  2836  01F8  0574               	andwf	___flge@ff2,w
  2837  01F9  00D0               	movwf	??___flge
  2838  01FA  3000               	movlw	0
  2839  01FB  0575               	andwf	___flge@ff2+1,w
  2840  01FC  00D1               	movwf	??___flge+1
  2841  01FD  3080               	movlw	128
  2842  01FE  0576               	andwf	___flge@ff2+2,w
  2843  01FF  00D2               	movwf	??___flge+2
  2844  0200  307F               	movlw	127
  2845  0201  0577               	andwf	___flge@ff2+3,w
  2846  0202  00D3               	movwf	??___flge+3
  2847  0203  0853               	movf	??___flge+3,w
  2848  0204  0452               	iorwf	??___flge+2,w
  2849  0205  0451               	iorwf	??___flge+1,w
  2850  0206  0450               	iorwf	??___flge,w
  2851  0207  1D03               	skipz
  2852  0208  2A11               	goto	l1311
  2853  0209  3000               	movlw	0
  2854  020A  00F7               	movwf	___flge@ff2+3
  2855  020B  3000               	movlw	0
  2856  020C  00F6               	movwf	___flge@ff2+2
  2857  020D  3000               	movlw	0
  2858  020E  00F5               	movwf	___flge@ff2+1
  2859  020F  3000               	movlw	0
  2860  0210  00F4               	movwf	___flge@ff2
  2861  0211                     l1311:	
  2862  0211  1FF3               	btfss	___flge@ff1+3,7
  2863  0212  2A3A               	goto	l1315
  2864  0213  3000               	movlw	0
  2865  0214  00D0               	movwf	??___flge
  2866  0215  3000               	movlw	0
  2867  0216  00D1               	movwf	??___flge+1
  2868  0217  3000               	movlw	0
  2869  0218  00D2               	movwf	??___flge+2
  2870  0219  3080               	movlw	128
  2871  021A  00D3               	movwf	??___flge+3
  2872  021B  0970               	comf	___flge@ff1,w
  2873  021C  00D4               	movwf	??___flge+4
  2874  021D  0971               	comf	___flge@ff1+1,w
  2875  021E  00D5               	movwf	??___flge+5
  2876  021F  0972               	comf	___flge@ff1+2,w
  2877  0220  00D6               	movwf	??___flge+6
  2878  0221  0973               	comf	___flge@ff1+3,w
  2879  0222  00D7               	movwf	??___flge+7
  2880  0223  0AD4               	incf	??___flge+4,f
  2881  0224  1903               	skipnz
  2882  0225  0AD5               	incf	??___flge+5,f
  2883  0226  1903               	skipnz
  2884  0227  0AD6               	incf	??___flge+6,f
  2885  0228  1903               	skipnz
  2886  0229  0AD7               	incf	??___flge+7,f
  2887  022A  0854               	movf	??___flge+4,w
  2888  022B  07D0               	addwf	??___flge,f
  2889  022C  0855               	movf	??___flge+5,w
  2890  022D  3DD1               	addwfc	??___flge+1,f
  2891  022E  0856               	movf	??___flge+6,w
  2892  022F  3DD2               	addwfc	??___flge+2,f
  2893  0230  0857               	movf	??___flge+7,w
  2894  0231  3DD3               	addwfc	??___flge+3,f
  2895  0232  0853               	movf	??___flge+3,w
  2896  0233  00F3               	movwf	___flge@ff1+3
  2897  0234  0852               	movf	??___flge+2,w
  2898  0235  00F2               	movwf	___flge@ff1+2
  2899  0236  0851               	movf	??___flge+1,w
  2900  0237  00F1               	movwf	___flge@ff1+1
  2901  0238  0850               	movf	??___flge,w
  2902  0239  00F0               	movwf	___flge@ff1
  2903  023A                     l1315:	
  2904  023A  1FF7               	btfss	___flge@ff2+3,7
  2905  023B  2A63               	goto	l1319
  2906  023C  3000               	movlw	0
  2907  023D  00D0               	movwf	??___flge
  2908  023E  3000               	movlw	0
  2909  023F  00D1               	movwf	??___flge+1
  2910  0240  3000               	movlw	0
  2911  0241  00D2               	movwf	??___flge+2
  2912  0242  3080               	movlw	128
  2913  0243  00D3               	movwf	??___flge+3
  2914  0244  0974               	comf	___flge@ff2,w
  2915  0245  00D4               	movwf	??___flge+4
  2916  0246  0975               	comf	___flge@ff2+1,w
  2917  0247  00D5               	movwf	??___flge+5
  2918  0248  0976               	comf	___flge@ff2+2,w
  2919  0249  00D6               	movwf	??___flge+6
  2920  024A  0977               	comf	___flge@ff2+3,w
  2921  024B  00D7               	movwf	??___flge+7
  2922  024C  0AD4               	incf	??___flge+4,f
  2923  024D  1903               	skipnz
  2924  024E  0AD5               	incf	??___flge+5,f
  2925  024F  1903               	skipnz
  2926  0250  0AD6               	incf	??___flge+6,f
  2927  0251  1903               	skipnz
  2928  0252  0AD7               	incf	??___flge+7,f
  2929  0253  0854               	movf	??___flge+4,w
  2930  0254  07D0               	addwf	??___flge,f
  2931  0255  0855               	movf	??___flge+5,w
  2932  0256  3DD1               	addwfc	??___flge+1,f
  2933  0257  0856               	movf	??___flge+6,w
  2934  0258  3DD2               	addwfc	??___flge+2,f
  2935  0259  0857               	movf	??___flge+7,w
  2936  025A  3DD3               	addwfc	??___flge+3,f
  2937  025B  0853               	movf	??___flge+3,w
  2938  025C  00F7               	movwf	___flge@ff2+3
  2939  025D  0852               	movf	??___flge+2,w
  2940  025E  00F6               	movwf	___flge@ff2+2
  2941  025F  0851               	movf	??___flge+1,w
  2942  0260  00F5               	movwf	___flge@ff2+1
  2943  0261  0850               	movf	??___flge,w
  2944  0262  00F4               	movwf	___flge@ff2
  2945  0263                     l1319:	
  2946  0263  3080               	movlw	128
  2947  0264  06F3               	xorwf	___flge@ff1+3,f
  2948  0265  3080               	movlw	128
  2949  0266  06F7               	xorwf	___flge@ff2+3,f
  2950  0267  0877               	movf	___flge@ff2+3,w
  2951  0268  0273               	subwf	___flge@ff1+3,w
  2952  0269  1D03               	skipz
  2953  026A  0008               	return
  2954  026B  0876               	movf	___flge@ff2+2,w
  2955  026C  0272               	subwf	___flge@ff1+2,w
  2956  026D  1D03               	skipz
  2957  026E  0008               	return
  2958  026F  0875               	movf	___flge@ff2+1,w
  2959  0270  0271               	subwf	___flge@ff1+1,w
  2960  0271  1D03               	skipz
  2961  0272  0008               	return
  2962  0273  0874               	movf	___flge@ff2,w
  2963  0274  0270               	subwf	___flge@ff1,w
  2964  0275  0008               	return
  2965  0276                     __end_of___flge:	
  2966                           
  2967                           	psect	text15
  2968  0049                     __ptext15:	
  2969 ;; *************** function ___fldiv *****************
  2970 ;; Defined at:
  2971 ;;		line 8 in file "/opt/microchip/xc8/v2.00/pic/sources/c99/common/sprcdiv.c"
  2972 ;; Parameters:    Size  Location     Type
  2973 ;;  a               4    0[BANK0 ] unsigned char 
  2974 ;;  b               4    4[BANK0 ] unsigned char 
  2975 ;; Auto vars:     Size  Location     Type
  2976 ;;  grs             4   20[BANK0 ] unsigned long 
  2977 ;;  rem             4   13[BANK0 ] unsigned long 
  2978 ;;  new_exp         2   18[BANK0 ] int 
  2979 ;;  aexp            1   25[BANK0 ] unsigned char 
  2980 ;;  bexp            1   24[BANK0 ] unsigned char 
  2981 ;;  sign            1   17[BANK0 ] unsigned char 
  2982 ;; Return value:  Size  Location     Type
  2983 ;;                  4    0[BANK0 ] unsigned char 
  2984 ;; Registers used:
  2985 ;;		wreg, status,2, status,0
  2986 ;; Tracked objects:
  2987 ;;		On entry : 0/0
  2988 ;;		On exit  : 0/0
  2989 ;;		Unchanged: 0/0
  2990 ;; Data sizes:     COMMON   BANK0   BANK1   BANK2   BANK3   BANK4   BANK5   BANK6   BANK7   BANK8   BANK9  BANK10  BANK1
      +1  BANK12
  2991 ;;      Params:         0       8       0       0       0       0       0       0       0       0       0       0       
      +0       0
  2992 ;;      Locals:         0      13       0       0       0       0       0       0       0       0       0       0       
      +0       0
  2993 ;;      Temps:          0       5       0       0       0       0       0       0       0       0       0       0       
      +0       0
  2994 ;;      Totals:         0      26       0       0       0       0       0       0       0       0       0       0       
      +0       0
  2995 ;;Total ram usage:       26 bytes
  2996 ;; Hardware stack levels used:    1
  2997 ;; Hardware stack levels required when called:    1
  2998 ;; This function calls:
  2999 ;;		Nothing
  3000 ;; This function is called by:
  3001 ;;		_ESC_monitor_Manage
  3002 ;; This function uses a non-reentrant model
  3003 ;;
  3004                           
  3005                           
  3006                           ;psect for function ___fldiv
  3007  0049                     ___fldiv:	
  3008                           
  3009                           ;incstack = 0
  3010                           ; Regs used in ___fldiv: [wreg+status,2+status,0]
  3011  0049  0140               	movlb	0	; select bank0
  3012  004A  0857               	movf	___fldiv@b+3,w
  3013  004B  3980               	andlw	128
  3014  004C  00D8               	movwf	??___fldiv
  3015  004D  0858               	movf	??___fldiv,w
  3016  004E  00E1               	movwf	___fldiv@sign
  3017  004F  3557               	lslf	___fldiv@b+3,w
  3018  0050  00D8               	movwf	??___fldiv
  3019  0051  0858               	movf	??___fldiv,w
  3020  0052  00E8               	movwf	___fldiv@bexp
  3021  0053  1BD6               	btfsc	___fldiv@b+2,7
  3022  0054  1468               	bsf	___fldiv@bexp,0
  3023  0055  0868               	movf	___fldiv@bexp,w
  3024  0056  1903               	btfsc	3,2
  3025  0057  2866               	goto	l1349
  3026  0058  0A68               	incf	___fldiv@bexp,w
  3027  0059  1D03               	btfss	3,2
  3028  005A  2863               	goto	l1345
  3029  005B  3000               	movlw	0
  3030  005C  00D7               	movwf	___fldiv@b+3
  3031  005D  3000               	movlw	0
  3032  005E  00D6               	movwf	___fldiv@b+2
  3033  005F  3000               	movlw	0
  3034  0060  00D5               	movwf	___fldiv@b+1
  3035  0061  3000               	movlw	0
  3036  0062  00D4               	movwf	___fldiv@b
  3037  0063                     l1345:	
  3038  0063  17D6               	bsf	___fldiv@b+2,7
  3039  0064  01D7               	clrf	___fldiv@b+3
  3040  0065  286E               	goto	l1351
  3041  0066                     l1349:	
  3042  0066  3000               	movlw	0
  3043  0067  00D7               	movwf	___fldiv@b+3
  3044  0068  3000               	movlw	0
  3045  0069  00D6               	movwf	___fldiv@b+2
  3046  006A  3000               	movlw	0
  3047  006B  00D5               	movwf	___fldiv@b+1
  3048  006C  3000               	movlw	0
  3049  006D  00D4               	movwf	___fldiv@b
  3050  006E                     l1351:	
  3051  006E  0853               	movf	___fldiv@a+3,w
  3052  006F  3980               	andlw	128
  3053  0070  00D8               	movwf	??___fldiv
  3054  0071  0858               	movf	??___fldiv,w
  3055  0072  06E1               	xorwf	___fldiv@sign,f
  3056  0073  3553               	lslf	___fldiv@a+3,w
  3057  0074  00D8               	movwf	??___fldiv
  3058  0075  0858               	movf	??___fldiv,w
  3059  0076  00E9               	movwf	___fldiv@aexp
  3060  0077  1BD2               	btfsc	___fldiv@a+2,7
  3061  0078  1469               	bsf	___fldiv@aexp,0
  3062  0079  0869               	movf	___fldiv@aexp,w
  3063  007A  1903               	btfsc	3,2
  3064  007B  288A               	goto	l1369
  3065  007C  0A69               	incf	___fldiv@aexp,w
  3066  007D  1D03               	btfss	3,2
  3067  007E  2887               	goto	l1365
  3068  007F  3000               	movlw	0
  3069  0080  00D3               	movwf	___fldiv@a+3
  3070  0081  3000               	movlw	0
  3071  0082  00D2               	movwf	___fldiv@a+2
  3072  0083  3000               	movlw	0
  3073  0084  00D1               	movwf	___fldiv@a+1
  3074  0085  3000               	movlw	0
  3075  0086  00D0               	movwf	___fldiv@a
  3076  0087                     l1365:	
  3077  0087  17D2               	bsf	___fldiv@a+2,7
  3078  0088  01D3               	clrf	___fldiv@a+3
  3079  0089  2892               	goto	l567
  3080  008A                     l1369:	
  3081  008A  3000               	movlw	0
  3082  008B  00D3               	movwf	___fldiv@a+3
  3083  008C  3000               	movlw	0
  3084  008D  00D2               	movwf	___fldiv@a+2
  3085  008E  3000               	movlw	0
  3086  008F  00D1               	movwf	___fldiv@a+1
  3087  0090  3000               	movlw	0
  3088  0091  00D0               	movwf	___fldiv@a
  3089  0092                     l567:	
  3090  0092  0853               	movf	___fldiv@a+3,w
  3091  0093  0452               	iorwf	___fldiv@a+2,w
  3092  0094  0451               	iorwf	___fldiv@a+1,w
  3093  0095  0450               	iorwf	___fldiv@a,w
  3094  0096  1D03               	skipz
  3095  0097  28B1               	goto	l1379
  3096  0098  3000               	movlw	0
  3097  0099  00D7               	movwf	___fldiv@b+3
  3098  009A  3000               	movlw	0
  3099  009B  00D6               	movwf	___fldiv@b+2
  3100  009C  3000               	movlw	0
  3101  009D  00D5               	movwf	___fldiv@b+1
  3102  009E  3000               	movlw	0
  3103  009F  00D4               	movwf	___fldiv@b
  3104  00A0  3080               	movlw	128
  3105  00A1  04D6               	iorwf	___fldiv@b+2,f
  3106  00A2  307F               	movlw	127
  3107  00A3  04D7               	iorwf	___fldiv@b+3,f
  3108  00A4  0861               	movf	___fldiv@sign,w
  3109  00A5  00D8               	movwf	??___fldiv
  3110  00A6  0858               	movf	??___fldiv,w
  3111  00A7  04D7               	iorwf	___fldiv@b+3,f
  3112  00A8  0857               	movf	___fldiv@b+3,w
  3113  00A9  00D3               	movwf	?___fldiv+3
  3114  00AA  0856               	movf	___fldiv@b+2,w
  3115  00AB  00D2               	movwf	?___fldiv+2
  3116  00AC  0855               	movf	___fldiv@b+1,w
  3117  00AD  00D1               	movwf	?___fldiv+1
  3118  00AE  0854               	movf	___fldiv@b,w
  3119  00AF  00D0               	movwf	?___fldiv
  3120  00B0  0008               	return
  3121  00B1                     l1379:	
  3122  00B1  0868               	movf	___fldiv@bexp,w
  3123  00B2  1D03               	btfss	3,2
  3124  00B3  28C5               	goto	l1385
  3125  00B4  3000               	movlw	0
  3126  00B5  00D7               	movwf	___fldiv@b+3
  3127  00B6  3000               	movlw	0
  3128  00B7  00D6               	movwf	___fldiv@b+2
  3129  00B8  3000               	movlw	0
  3130  00B9  00D5               	movwf	___fldiv@b+1
  3131  00BA  3000               	movlw	0
  3132  00BB  00D4               	movwf	___fldiv@b
  3133  00BC  0857               	movf	___fldiv@b+3,w
  3134  00BD  00D3               	movwf	?___fldiv+3
  3135  00BE  0856               	movf	___fldiv@b+2,w
  3136  00BF  00D2               	movwf	?___fldiv+2
  3137  00C0  0855               	movf	___fldiv@b+1,w
  3138  00C1  00D1               	movwf	?___fldiv+1
  3139  00C2  0854               	movf	___fldiv@b,w
  3140  00C3  00D0               	movwf	?___fldiv
  3141  00C4  0008               	return
  3142  00C5                     l1385:	
  3143  00C5  0869               	movf	___fldiv@aexp,w
  3144  00C6  00D8               	movwf	??___fldiv
  3145  00C7  01D9               	clrf	??___fldiv+1
  3146  00C8  09D8               	comf	??___fldiv,f
  3147  00C9  09D9               	comf	??___fldiv+1,f
  3148  00CA  0AD8               	incf	??___fldiv,f
  3149  00CB  1903               	skipnz
  3150  00CC  0AD9               	incf	??___fldiv+1,f
  3151  00CD  0868               	movf	___fldiv@bexp,w
  3152  00CE  0758               	addwf	??___fldiv,w
  3153  00CF  00DA               	movwf	??___fldiv+2
  3154  00D0  0859               	movf	??___fldiv+1,w
  3155  00D1  1803               	skipnc
  3156  00D2  0A59               	incf	??___fldiv+1,w
  3157  00D3  00DB               	movwf	??___fldiv+3
  3158  00D4  085A               	movf	??___fldiv+2,w
  3159  00D5  3E7F               	addlw	127
  3160  00D6  00E2               	movwf	___fldiv@new_exp
  3161  00D7  3000               	movlw	0
  3162  00D8  3D5B               	addwfc	??___fldiv+3,w
  3163  00D9  00E3               	movwf	___fldiv@new_exp+1
  3164  00DA  0857               	movf	___fldiv@b+3,w
  3165  00DB  00E0               	movwf	___fldiv@rem+3
  3166  00DC  0856               	movf	___fldiv@b+2,w
  3167  00DD  00DF               	movwf	___fldiv@rem+2
  3168  00DE  0855               	movf	___fldiv@b+1,w
  3169  00DF  00DE               	movwf	___fldiv@rem+1
  3170  00E0  0854               	movf	___fldiv@b,w
  3171  00E1  00DD               	movwf	___fldiv@rem
  3172  00E2  3000               	movlw	0
  3173  00E3  00D7               	movwf	___fldiv@b+3
  3174  00E4  3000               	movlw	0
  3175  00E5  00D6               	movwf	___fldiv@b+2
  3176  00E6  3000               	movlw	0
  3177  00E7  00D5               	movwf	___fldiv@b+1
  3178  00E8  3000               	movlw	0
  3179  00E9  00D4               	movwf	___fldiv@b
  3180  00EA  3000               	movlw	0
  3181  00EB  00E7               	movwf	___fldiv@grs+3
  3182  00EC  3000               	movlw	0
  3183  00ED  00E6               	movwf	___fldiv@grs+2
  3184  00EE  3000               	movlw	0
  3185  00EF  00E5               	movwf	___fldiv@grs+1
  3186  00F0  3000               	movlw	0
  3187  00F1  00E4               	movwf	___fldiv@grs
  3188  00F2  01E9               	clrf	___fldiv@aexp
  3189  00F3                     l1413:	
  3190  00F3  301A               	movlw	26
  3191  00F4  0269               	subwf	___fldiv@aexp,w
  3192  00F5  1803               	btfsc	3,0
  3193  00F6  292F               	goto	l1415
  3194  00F7  0869               	movf	___fldiv@aexp,w
  3195  00F8  1903               	btfsc	3,2
  3196  00F9  2911               	goto	l1405
  3197  00FA  3001               	movlw	1
  3198  00FB                     u1155:	
  3199  00FB  35DD               	lslf	___fldiv@rem,f
  3200  00FC  0DDE               	rlf	___fldiv@rem+1,f
  3201  00FD  0DDF               	rlf	___fldiv@rem+2,f
  3202  00FE  0DE0               	rlf	___fldiv@rem+3,f
  3203  00FF  0B89               	decfsz	9,f
  3204  0100  28FB               	goto	u1155
  3205  0101  3001               	movlw	1
  3206  0102                     u1165:	
  3207  0102  35D4               	lslf	___fldiv@b,f
  3208  0103  0DD5               	rlf	___fldiv@b+1,f
  3209  0104  0DD6               	rlf	___fldiv@b+2,f
  3210  0105  0DD7               	rlf	___fldiv@b+3,f
  3211  0106  0B89               	decfsz	9,f
  3212  0107  2902               	goto	u1165
  3213  0108  1BE7               	btfsc	___fldiv@grs+3,7
  3214  0109  1454               	bsf	___fldiv@b,0
  3215  010A  3001               	movlw	1
  3216  010B                     u1185:	
  3217  010B  35E4               	lslf	___fldiv@grs,f
  3218  010C  0DE5               	rlf	___fldiv@grs+1,f
  3219  010D  0DE6               	rlf	___fldiv@grs+2,f
  3220  010E  0DE7               	rlf	___fldiv@grs+3,f
  3221  010F  0B89               	decfsz	9,f
  3222  0110  290B               	goto	u1185
  3223  0111                     l1405:	
  3224  0111  0853               	movf	___fldiv@a+3,w
  3225  0112  0260               	subwf	___fldiv@rem+3,w
  3226  0113  1D03               	skipz
  3227  0114  291F               	goto	u1195
  3228  0115  0852               	movf	___fldiv@a+2,w
  3229  0116  025F               	subwf	___fldiv@rem+2,w
  3230  0117  1D03               	skipz
  3231  0118  291F               	goto	u1195
  3232  0119  0851               	movf	___fldiv@a+1,w
  3233  011A  025E               	subwf	___fldiv@rem+1,w
  3234  011B  1D03               	skipz
  3235  011C  291F               	goto	u1195
  3236  011D  0850               	movf	___fldiv@a,w
  3237  011E  025D               	subwf	___fldiv@rem,w
  3238  011F                     u1195:	
  3239  011F  1C03               	skipc
  3240  0120  292A               	goto	l1411
  3241  0121  1767               	bsf	___fldiv@grs+3,6
  3242  0122  0850               	movf	___fldiv@a,w
  3243  0123  02DD               	subwf	___fldiv@rem,f
  3244  0124  0851               	movf	___fldiv@a+1,w
  3245  0125  3BDE               	subwfb	___fldiv@rem+1,f
  3246  0126  0852               	movf	___fldiv@a+2,w
  3247  0127  3BDF               	subwfb	___fldiv@rem+2,f
  3248  0128  0853               	movf	___fldiv@a+3,w
  3249  0129  3BE0               	subwfb	___fldiv@rem+3,f
  3250  012A                     l1411:	
  3251  012A  3001               	movlw	1
  3252  012B  00D8               	movwf	??___fldiv
  3253  012C  0858               	movf	??___fldiv,w
  3254  012D  07E9               	addwf	___fldiv@aexp,f
  3255  012E  28F3               	goto	l1413
  3256  012F                     l1415:	
  3257  012F  0860               	movf	___fldiv@rem+3,w
  3258  0130  045F               	iorwf	___fldiv@rem+2,w
  3259  0131  045E               	iorwf	___fldiv@rem+1,w
  3260  0132  045D               	iorwf	___fldiv@rem,w
  3261  0133  1D03               	btfss	3,2
  3262  0134  1464               	bsf	___fldiv@grs,0
  3263  0135                     l1429:	
  3264  0135  1BD6               	btfsc	___fldiv@b+2,7
  3265  0136  294C               	goto	l1431
  3266  0137  3001               	movlw	1
  3267  0138                     u1225:	
  3268  0138  35D4               	lslf	___fldiv@b,f
  3269  0139  0DD5               	rlf	___fldiv@b+1,f
  3270  013A  0DD6               	rlf	___fldiv@b+2,f
  3271  013B  0DD7               	rlf	___fldiv@b+3,f
  3272  013C  0B89               	decfsz	9,f
  3273  013D  2938               	goto	u1225
  3274  013E  1BE7               	btfsc	___fldiv@grs+3,7
  3275  013F  1454               	bsf	___fldiv@b,0
  3276  0140  3001               	movlw	1
  3277  0141                     u1245:	
  3278  0141  35E4               	lslf	___fldiv@grs,f
  3279  0142  0DE5               	rlf	___fldiv@grs+1,f
  3280  0143  0DE6               	rlf	___fldiv@grs+2,f
  3281  0144  0DE7               	rlf	___fldiv@grs+3,f
  3282  0145  0B89               	decfsz	9,f
  3283  0146  2941               	goto	u1245
  3284  0147  30FF               	movlw	255
  3285  0148  07E2               	addwf	___fldiv@new_exp,f
  3286  0149  30FF               	movlw	255
  3287  014A  3DE3               	addwfc	___fldiv@new_exp+1,f
  3288  014B  2935               	goto	l1429
  3289  014C                     l1431:	
  3290  014C  01E9               	clrf	___fldiv@aexp
  3291  014D  1FE7               	btfss	___fldiv@grs+3,7
  3292  014E  2965               	goto	l1441
  3293  014F  30FF               	movlw	255
  3294  0150  0564               	andwf	___fldiv@grs,w
  3295  0151  00D8               	movwf	??___fldiv
  3296  0152  30FF               	movlw	255
  3297  0153  0565               	andwf	___fldiv@grs+1,w
  3298  0154  00D9               	movwf	??___fldiv+1
  3299  0155  30FF               	movlw	255
  3300  0156  0566               	andwf	___fldiv@grs+2,w
  3301  0157  00DA               	movwf	??___fldiv+2
  3302  0158  307F               	movlw	127
  3303  0159  0567               	andwf	___fldiv@grs+3,w
  3304  015A  00DB               	movwf	??___fldiv+3
  3305  015B  085B               	movf	??___fldiv+3,w
  3306  015C  045A               	iorwf	??___fldiv+2,w
  3307  015D  0459               	iorwf	??___fldiv+1,w
  3308  015E  0458               	iorwf	??___fldiv,w
  3309  015F  1D03               	btfss	3,2
  3310  0160  2963               	goto	l1439
  3311  0161  1C54               	btfss	___fldiv@b,0
  3312  0162  2965               	goto	l1441
  3313  0163                     l1439:	
  3314  0163  01E9               	clrf	___fldiv@aexp
  3315  0164  0AE9               	incf	___fldiv@aexp,f
  3316  0165                     l1441:	
  3317  0165  0869               	movf	___fldiv@aexp,w
  3318  0166  1903               	btfsc	3,2
  3319  0167  298E               	goto	l1451
  3320  0168  3001               	movlw	1
  3321  0169  07D4               	addwf	___fldiv@b,f
  3322  016A  3000               	movlw	0
  3323  016B  3DD5               	addwfc	___fldiv@b+1,f
  3324  016C  3000               	movlw	0
  3325  016D  3DD6               	addwfc	___fldiv@b+2,f
  3326  016E  3000               	movlw	0
  3327  016F  3DD7               	addwfc	___fldiv@b+3,f
  3328  0170  1C57               	btfss	___fldiv@b+3,0
  3329  0171  298E               	goto	l1451
  3330  0172  0854               	movf	___fldiv@b,w
  3331  0173  00D8               	movwf	??___fldiv
  3332  0174  0855               	movf	___fldiv@b+1,w
  3333  0175  00D9               	movwf	??___fldiv+1
  3334  0176  0856               	movf	___fldiv@b+2,w
  3335  0177  00DA               	movwf	??___fldiv+2
  3336  0178  0857               	movf	___fldiv@b+3,w
  3337  0179  00DB               	movwf	??___fldiv+3
  3338  017A  3001               	movlw	1
  3339  017B  00DC               	movwf	??___fldiv+4
  3340  017C                     u1315:	
  3341  017C  37DB               	asrf	??___fldiv+3,f
  3342  017D  0CDA               	rrf	??___fldiv+2,f
  3343  017E  0CD9               	rrf	??___fldiv+1,f
  3344  017F  0CD8               	rrf	??___fldiv,f
  3345  0180  0BDC               	decfsz	??___fldiv+4,f
  3346  0181  297C               	goto	u1315
  3347  0182  085B               	movf	??___fldiv+3,w
  3348  0183  00D7               	movwf	___fldiv@b+3
  3349  0184  085A               	movf	??___fldiv+2,w
  3350  0185  00D6               	movwf	___fldiv@b+2
  3351  0186  0859               	movf	??___fldiv+1,w
  3352  0187  00D5               	movwf	___fldiv@b+1
  3353  0188  0858               	movf	??___fldiv,w
  3354  0189  00D4               	movwf	___fldiv@b
  3355  018A  3001               	movlw	1
  3356  018B  07E2               	addwf	___fldiv@new_exp,f
  3357  018C  3000               	movlw	0
  3358  018D  3DE3               	addwfc	___fldiv@new_exp+1,f
  3359  018E                     l1451:	
  3360  018E  0863               	movf	___fldiv@new_exp+1,w
  3361  018F  3A80               	xorlw	128
  3362  0190  00D8               	movwf	??___fldiv
  3363  0191  3080               	movlw	128
  3364  0192  0258               	subwf	??___fldiv,w
  3365  0193  1D03               	skipz
  3366  0194  2997               	goto	u1325
  3367  0195  30FF               	movlw	255
  3368  0196  0262               	subwf	___fldiv@new_exp,w
  3369  0197                     u1325:	
  3370  0197  1C03               	skipc
  3371  0198  29A6               	goto	l588
  3372  0199  30FF               	movlw	255
  3373  019A  0140               	movlb	0	; select bank0
  3374  019B  00E2               	movwf	___fldiv@new_exp
  3375  019C  3000               	movlw	0
  3376  019D  00E3               	movwf	___fldiv@new_exp+1
  3377  019E  3000               	movlw	0
  3378  019F  00D7               	movwf	___fldiv@b+3
  3379  01A0  3000               	movlw	0
  3380  01A1  00D6               	movwf	___fldiv@b+2
  3381  01A2  3000               	movlw	0
  3382  01A3  00D5               	movwf	___fldiv@b+1
  3383  01A4  3000               	movlw	0
  3384  01A5  00D4               	movwf	___fldiv@b
  3385  01A6                     l588:	
  3386  01A6  0140               	movlb	0	; select bank0
  3387  01A7  0863               	movf	___fldiv@new_exp+1,w
  3388  01A8  3A80               	xorlw	128
  3389  01A9  00D8               	movwf	??___fldiv
  3390  01AA  3080               	movlw	128
  3391  01AB  0258               	subwf	??___fldiv,w
  3392  01AC  1D03               	skipz
  3393  01AD  29B0               	goto	u1335
  3394  01AE  3001               	movlw	1
  3395  01AF  0262               	subwf	___fldiv@new_exp,w
  3396  01B0                     u1335:	
  3397  01B0  1803               	skipnc
  3398  01B1  29BE               	goto	l589
  3399  01B2  0140               	movlb	0	; select bank0
  3400  01B3  01E2               	clrf	___fldiv@new_exp
  3401  01B4  01E3               	clrf	___fldiv@new_exp+1
  3402  01B5  3000               	movlw	0
  3403  01B6  00D7               	movwf	___fldiv@b+3
  3404  01B7  3000               	movlw	0
  3405  01B8  00D6               	movwf	___fldiv@b+2
  3406  01B9  3000               	movlw	0
  3407  01BA  00D5               	movwf	___fldiv@b+1
  3408  01BB  3000               	movlw	0
  3409  01BC  00D4               	movwf	___fldiv@b
  3410  01BD  01E1               	clrf	___fldiv@sign
  3411  01BE                     l589:	
  3412  01BE  0140               	movlb	0	; select bank0
  3413  01BF  0862               	movf	___fldiv@new_exp,w
  3414  01C0  00D8               	movwf	??___fldiv
  3415  01C1  0858               	movf	??___fldiv,w
  3416  01C2  00E8               	movwf	___fldiv@bexp
  3417  01C3  1C68               	btfss	___fldiv@bexp,0
  3418  01C4  29C7               	goto	l1465
  3419  01C5  17D6               	bsf	___fldiv@b+2,7
  3420  01C6  29CB               	goto	l591
  3421  01C7                     l1465:	
  3422  01C7  307F               	movlw	127
  3423  01C8  00D8               	movwf	??___fldiv
  3424  01C9  0858               	movf	??___fldiv,w
  3425  01CA  05D6               	andwf	___fldiv@b+2,f
  3426  01CB                     l591:	
  3427  01CB  3668               	lsrf	___fldiv@bexp,w
  3428  01CC  00D8               	movwf	??___fldiv
  3429  01CD  0858               	movf	??___fldiv,w
  3430  01CE  00D7               	movwf	___fldiv@b+3
  3431  01CF  0861               	movf	___fldiv@sign,w
  3432  01D0  00D8               	movwf	??___fldiv
  3433  01D1  0858               	movf	??___fldiv,w
  3434  01D2  04D7               	iorwf	___fldiv@b+3,f
  3435  01D3  0857               	movf	___fldiv@b+3,w
  3436  01D4  00D3               	movwf	?___fldiv+3
  3437  01D5  0856               	movf	___fldiv@b+2,w
  3438  01D6  00D2               	movwf	?___fldiv+2
  3439  01D7  0855               	movf	___fldiv@b+1,w
  3440  01D8  00D1               	movwf	?___fldiv+1
  3441  01D9  0854               	movf	___fldiv@b,w
  3442  01DA  00D0               	movwf	?___fldiv
  3443  01DB  0008               	return
  3444  01DC                     __end_of___fldiv:	
  3445                           
  3446                           	psect	intentry
  3447  0004                     __pintentry:	
  3448 ;; *************** function _isr *****************
  3449 ;; Defined at:
  3450 ;;		line 360 in file "main.c"
  3451 ;; Parameters:    Size  Location     Type
  3452 ;;		None
  3453 ;; Auto vars:     Size  Location     Type
  3454 ;;		None
  3455 ;; Return value:  Size  Location     Type
  3456 ;;                  1    wreg      void 
  3457 ;; Registers used:
  3458 ;;		wreg, status,2
  3459 ;; Tracked objects:
  3460 ;;		On entry : 0/0
  3461 ;;		On exit  : 0/0
  3462 ;;		Unchanged: 0/0
  3463 ;; Data sizes:     COMMON   BANK0   BANK1   BANK2   BANK3   BANK4   BANK5   BANK6   BANK7   BANK8   BANK9  BANK10  BANK1
      +1  BANK12
  3464 ;;      Params:         0       0       0       0       0       0       0       0       0       0       0       0       
      +0       0
  3465 ;;      Locals:         0       0       0       0       0       0       0       0       0       0       0       0       
      +0       0
  3466 ;;      Temps:          0       0       0       0       0       0       0       0       0       0       0       0       
      +0       0
  3467 ;;      Totals:         0       0       0       0       0       0       0       0       0       0       0       0       
      +0       0
  3468 ;;Total ram usage:        0 bytes
  3469 ;; Hardware stack levels used:    1
  3470 ;; This function calls:
  3471 ;;		Nothing
  3472 ;; This function is called by:
  3473 ;;		Interrupt level 1
  3474 ;; This function uses a non-reentrant model
  3475 ;;
  3476                           
  3477  0004                     _isr:	
  3478                           
  3479                           ;incstack = 0
  3480  0004  147E               	bsf	126,0	;set compiler interrupt flag (level 1)
  3481                           
  3482                           ; Regs used in _isr: [wreg+status,2]
  3483  0005  3180               	pagesel	$
  3484                           
  3485                           ;main.c: 362:     if(PIR0bits.TMR0IF == 1)
  3486  0006  014E               	movlb	14	; select bank14
  3487  0007  1E8C               	btfss	12,5	;volatile
  3488  0008  2815               	goto	i1l1665
  3489                           
  3490                           ;main.c: 363:     {;main.c: 364:         PIR0bits.TMR0IF = 0;
  3491  0009  128C               	bcf	12,5	;volatile
  3492                           
  3493                           ;main.c: 365:         TMR0H = 0xd0;
  3494  000A  30D0               	movlw	208
  3495  000B  014B               	movlb	11	; select bank11
  3496  000C  009D               	movwf	29	;volatile
  3497                           
  3498                           ;main.c: 366:         TMR0L = 0x00;
  3499  000D  019C               	clrf	28	;volatile
  3500                           
  3501                           ;main.c: 367:         ESC_valid_consecutive_periods_counter = 50;
  3502  000E  3032               	movlw	50
  3503  000F  0140               	movlb	0	; select bank0
  3504  0010  00C2               	movwf	_ESC_valid_consecutive_periods_counter
  3505  0011  3000               	movlw	0
  3506  0012  00C3               	movwf	_ESC_valid_consecutive_periods_counter+1
  3507                           
  3508                           ;main.c: 368:         turnoffAllowed = 1;
  3509  0013  01C8               	clrf	_turnoffAllowed
  3510  0014  0AC8               	incf	_turnoffAllowed,f
  3511  0015                     i1l1665:	
  3512                           ;main.c: 369:     }
  3513                           
  3514                           
  3515                           ;main.c: 371:     if(PIR0bits.IOCIF == 1)
  3516  0015  014E               	movlb	14	; select bank14
  3517  0016  1E0C               	btfss	12,4	;volatile
  3518  0017  283A               	goto	i1l206
  3519                           
  3520                           ;main.c: 372:     {;main.c: 373:         PIR0bits.IOCIF = 0;
  3521  0018  120C               	bcf	12,4	;volatile
  3522                           
  3523                           ;main.c: 375:         if(IOCBFbits.IOCBF3 == 1)
  3524  0019  017E               	movlb	62	; select bank62
  3525  001A  1DCA               	btfss	74,3	;volatile
  3526  001B  283A               	goto	i1l206
  3527                           
  3528                           ;main.c: 376:         {;main.c: 377:             IOCBFbits.IOCBF3 = 0;
  3529  001C  11CA               	bcf	74,3	;volatile
  3530                           
  3531                           ;main.c: 378:             T0CON0bits.T0EN = 0;
  3532  001D  014B               	movlb	11	; select bank11
  3533  001E  139E               	bcf	30,7	;volatile
  3534                           
  3535                           ;main.c: 379:             if(PORTBbits.RB3 == 0)
  3536  001F  0140               	movlb	0	; select bank0
  3537  0020  198D               	btfsc	13,3	;volatile
  3538  0021  282B               	goto	i1l1673
  3539                           
  3540                           ;main.c: 380:             {;main.c: 382:                 ESC_period_high = TMR0H << 8 | 
      +                          TMR0L;
  3541  0022  014B               	movlb	11	; select bank11
  3542  0023  081D               	movf	29,w	;volatile
  3543  0024  0140               	movlb	0	; select bank0
  3544  0025  00C5               	movwf	_ESC_period_high+1
  3545  0026  014B               	movlb	11	; select bank11
  3546  0027  081C               	movf	28,w	;volatile
  3547  0028  0140               	movlb	0	; select bank0
  3548  0029  00C4               	movwf	_ESC_period_high
  3549                           
  3550                           ;main.c: 383:             }
  3551  002A  2835               	goto	i1l205
  3552  002B                     i1l1673:	
  3553                           ;main.c: 384:             else{
  3554                           
  3555                           
  3556                           ;main.c: 385:                 ESC_period_low = TMR0H << 8 | TMR0L;
  3557  002B  014B               	movlb	11	; select bank11
  3558  002C  081D               	movf	29,w	;volatile
  3559  002D  0140               	movlb	0	; select bank0
  3560  002E  00C7               	movwf	_ESC_period_low+1
  3561  002F  014B               	movlb	11	; select bank11
  3562  0030  081C               	movf	28,w	;volatile
  3563  0031  0140               	movlb	0	; select bank0
  3564  0032  00C6               	movwf	_ESC_period_low
  3565                           
  3566                           ;main.c: 386:                 ESC_period_over = 1;
  3567  0033  01CB               	clrf	_ESC_period_over
  3568  0034  0ACB               	incf	_ESC_period_over,f
  3569  0035                     i1l205:	
  3570                           ;main.c: 387:             }
  3571                           
  3572                           
  3573                           ;main.c: 389:             TMR0H = 0xd0;
  3574  0035  30D0               	movlw	208
  3575  0036  014B               	movlb	11	; select bank11
  3576  0037  009D               	movwf	29	;volatile
  3577                           
  3578                           ;main.c: 390:             TMR0L = 0x00;
  3579  0038  019C               	clrf	28	;volatile
  3580                           
  3581                           ;main.c: 391:             T0CON0bits.T0EN = 1;
  3582  0039  179E               	bsf	30,7	;volatile
  3583  003A                     i1l206:	
  3584                           ;main.c: 393:     }
  3585                           
  3586                           ;main.c: 392:         }
  3587                           
  3588  003A  107E               	bcf	126,0	;clear compiler interrupt flag (level 1)
  3589  003B  0009               	retfie
  3590  003C                     __end_of_isr:	
  3591  007E                     btemp	set	126	;btemp
  3592  007E                     int$flags	set	126
  3593  007E                     wtemp0	set	126


Data Sizes:
    Strings     0
    Constant    0
    Data        0
    BSS         48
    Persistent  5
    Stack       0

Auto Spaces:
    Space          Size  Autos    Used
    COMMON           14     14      14
    BANK0            80     26      79
    BANK1            80      0       0
    BANK2            80      0       0
    BANK3            80      0       0
    BANK4            80      0       0
    BANK5            80      0       0
    BANK6            80      0       0
    BANK7            80      0       0
    BANK8            80      0       0
    BANK9            80      0       0
    BANK10           80      0       0
    BANK11           80      0       0
    BANK12           48      0       0

Pointer List with Targets:

    None.

Critical Paths under _main in COMMON

    _I2C_Manage->_goToBed
    _Turnon->_Switch_Turnon
    _Turnoff->_Switch_Turnoff
    _ESC_monitor_Manage->___xxtofl
    ___fldiv->___xxtofl

Critical Paths under _isr in COMMON

    None.

Critical Paths under _main in BANK0

    _ESC_monitor_Manage->___fldiv

Critical Paths under _isr in BANK0

    None.

Critical Paths under _main in BANK1

    None.

Critical Paths under _isr in BANK1

    None.

Critical Paths under _main in BANK2

    None.

Critical Paths under _isr in BANK2

    None.

Critical Paths under _main in BANK3

    None.

Critical Paths under _isr in BANK3

    None.

Critical Paths under _main in BANK4

    None.

Critical Paths under _isr in BANK4

    None.

Critical Paths under _main in BANK5

    None.

Critical Paths under _isr in BANK5

    None.

Critical Paths under _main in BANK6

    None.

Critical Paths under _isr in BANK6

    None.

Critical Paths under _main in BANK7

    None.

Critical Paths under _isr in BANK7

    None.

Critical Paths under _main in BANK8

    None.

Critical Paths under _isr in BANK8

    None.

Critical Paths under _main in BANK9

    None.

Critical Paths under _isr in BANK9

    None.

Critical Paths under _main in BANK10

    None.

Critical Paths under _isr in BANK10

    None.

Critical Paths under _main in BANK11

    None.

Critical Paths under _isr in BANK11

    None.

Critical Paths under _main in BANK12

    None.

Critical Paths under _isr in BANK12

    None.

Call Graph Tables:

 ---------------------------------------------------------------------------------
 (Depth) Function   	        Calls       Base Space   Used Autos Params    Refs
 ---------------------------------------------------------------------------------
 (0) _main                                                 0     0      0    2499
                 _ESC_monitor_Manage
                         _I2C_Manage
                      _Switch_Manage
                            _Turnoff
                             _Turnon
 ---------------------------------------------------------------------------------
 (1) _Switch_Manage                                        0     0      0       0
 ---------------------------------------------------------------------------------
 (1) _I2C_Manage                                          17    17      0     326
                                             10 COMMON     1     1      0
                                              0 BANK0     16    16      0
                            _goToBed
 ---------------------------------------------------------------------------------
 (2) _goToBed                                              8     4      4     258
                                              2 COMMON     8     4      4
                            _Turnoff
                             _Turnon
                      _setOscillator
 ---------------------------------------------------------------------------------
 (3) _setOscillator                                        1     1      0      44
                                              0 COMMON     1     1      0
 ---------------------------------------------------------------------------------
 (1) _Turnon                                               0     0      0      46
                 _ESC_monitor_Turnon
                         _I2C_Turnon
                      _Switch_Turnon
 ---------------------------------------------------------------------------------
 (2) _Switch_Turnon                                        2     2      0      46
                                              0 COMMON     2     2      0
                         _I2C_Turnon
 ---------------------------------------------------------------------------------
 (3) _I2C_Turnon                                           0     0      0       0
 ---------------------------------------------------------------------------------
 (2) _ESC_monitor_Turnon                                   0     0      0       0
 ---------------------------------------------------------------------------------
 (1) _Turnoff                                              0     0      0      46
                _ESC_monitor_Turnoff
                     _Switch_Turnoff
 ---------------------------------------------------------------------------------
 (2) _Switch_Turnoff                                       2     2      0      46
                                              0 COMMON     2     2      0
 ---------------------------------------------------------------------------------
 (2) _ESC_monitor_Turnoff                                  0     0      0       0
 ---------------------------------------------------------------------------------
 (1) _ESC_monitor_Manage                                   0     0      0    2081
                            ___fldiv
                             ___flge
                           ___xxtofl
 ---------------------------------------------------------------------------------
 (2) ___xxtofl                                            14    10      4     474
                                              0 COMMON    14    10      4
 ---------------------------------------------------------------------------------
 (2) ___flge                                              16     8      8     334
                                              0 COMMON     8     0      8
                                              0 BANK0      8     8      0
 ---------------------------------------------------------------------------------
 (2) ___fldiv                                             26    18      8    1273
                                              0 BANK0     26    18      8
                           ___xxtofl (ARG)
 ---------------------------------------------------------------------------------
 Estimated maximum stack depth 3
 ---------------------------------------------------------------------------------
 (Depth) Function   	        Calls       Base Space   Used Autos Params    Refs
 ---------------------------------------------------------------------------------
 (6) _isr                                                  0     0      0       0
 ---------------------------------------------------------------------------------
 Estimated maximum stack depth 6
 ---------------------------------------------------------------------------------

 Call Graph Graphs:

 _main (ROOT)
   _ESC_monitor_Manage
     ___fldiv
       ___xxtofl (ARG)
     ___flge
     ___xxtofl
   _I2C_Manage
     _goToBed
       _Turnoff
         _ESC_monitor_Turnoff
         _Switch_Turnoff
       _Turnon
         _ESC_monitor_Turnon
         _I2C_Turnon
         _Switch_Turnon
           _I2C_Turnon
       _setOscillator
   _Switch_Manage
   _Turnoff
     _ESC_monitor_Turnoff
     _Switch_Turnoff
   _Turnon
     _ESC_monitor_Turnon
     _I2C_Turnon
     _Switch_Turnon
       _I2C_Turnon

 _isr (ROOT)

 Address spaces:
Name               Size   Autos  Total    Cost      Usage
BIGRAM             3F0      0       0       0        0.0%
NULL                 0      0       0       0        0.0%
CODE                 0      0       0       0        0.0%
BITCOMMON            E      0       0       1        0.0%
BITSFR0              0      0       0       1        0.0%
SFR0                 0      0       0       1        0.0%
COMMON               E      E       E       2      100.0%
BITSFR1              0      0       0       2        0.0%
SFR1                 0      0       0       2        0.0%
BITSFR2              0      0       0       3        0.0%
SFR2                 0      0       0       3        0.0%
STACK                0      0       0       3        0.0%
BITSFR3              0      0       0       4        0.0%
SFR3                 0      0       0       4        0.0%
ABS                  0      0      5D       4        0.0%
BITBANK0            50      0       0       5        0.0%
BITSFR4              0      0       0       5        0.0%
SFR4                 0      0       0       5        0.0%
BANK0               50     1A      4F       6       98.8%
BITSFR5              0      0       0       6        0.0%
SFR5                 0      0       0       6        0.0%
BITBANK1            50      0       0       7        0.0%
BITSFR6              0      0       0       7        0.0%
SFR6                 0      0       0       7        0.0%
BANK1               50      0       0       8        0.0%
BITSFR7              0      0       0       8        0.0%
SFR7                 0      0       0       8        0.0%
BITBANK2            50      0       0       9        0.0%
BITSFR8              0      0       0       9        0.0%
SFR8                 0      0       0       9        0.0%
BANK2               50      0       0      10        0.0%
BITSFR9              0      0       0      10        0.0%
SFR9                 0      0       0      10        0.0%
BITBANK3            50      0       0      11        0.0%
BITSFR10             0      0       0      11        0.0%
SFR10                0      0       0      11        0.0%
BANK3               50      0       0      12        0.0%
BITSFR11             0      0       0      12        0.0%
SFR11                0      0       0      12        0.0%
BITBANK4            50      0       0      13        0.0%
BITSFR12             0      0       0      13        0.0%
SFR12                0      0       0      13        0.0%
BANK4               50      0       0      14        0.0%
BITSFR13             0      0       0      14        0.0%
SFR13                0      0       0      14        0.0%
BITBANK5            50      0       0      15        0.0%
BITSFR14             0      0       0      15        0.0%
SFR14                0      0       0      15        0.0%
BANK5               50      0       0      16        0.0%
BITSFR15             0      0       0      16        0.0%
SFR15                0      0       0      16        0.0%
BITBANK6            50      0       0      17        0.0%
BITSFR16             0      0       0      17        0.0%
SFR16                0      0       0      17        0.0%
BANK6               50      0       0      18        0.0%
BITSFR17             0      0       0      18        0.0%
SFR17                0      0       0      18        0.0%
BITBANK7            50      0       0      19        0.0%
BITSFR18             0      0       0      19        0.0%
SFR18                0      0       0      19        0.0%
BANK7               50      0       0      20        0.0%
BITSFR19             0      0       0      20        0.0%
SFR19                0      0       0      20        0.0%
BITBANK8            50      0       0      21        0.0%
BITSFR20             0      0       0      21        0.0%
SFR20                0      0       0      21        0.0%
BANK8               50      0       0      22        0.0%
BITSFR21             0      0       0      22        0.0%
SFR21                0      0       0      22        0.0%
BITBANK9            50      0       0      23        0.0%
BITSFR22             0      0       0      23        0.0%
SFR22                0      0       0      23        0.0%
BANK9               50      0       0      24        0.0%
BITSFR23             0      0       0      24        0.0%
SFR23                0      0       0      24        0.0%
BITBANK10           50      0       0      25        0.0%
BITSFR24             0      0       0      25        0.0%
SFR24                0      0       0      25        0.0%
BANK10              50      0       0      26        0.0%
BITSFR25             0      0       0      26        0.0%
SFR25                0      0       0      26        0.0%
BITBANK11           50      0       0      27        0.0%
BITSFR26             0      0       0      27        0.0%
SFR26                0      0       0      27        0.0%
BANK11              50      0       0      28        0.0%
BITSFR27             0      0       0      28        0.0%
SFR27                0      0       0      28        0.0%
BITBANK12           30      0       0      29        0.0%
BITSFR28             0      0       0      29        0.0%
SFR28                0      0       0      29        0.0%
BANK12              30      0       0      30        0.0%
BITSFR29             0      0       0      30        0.0%
SFR29                0      0       0      30        0.0%
BITSFR30             0      0       0      31        0.0%
SFR30                0      0       0      31        0.0%
DATA                 0      0      5D      31        0.0%
BITSFR31             0      0       0      32        0.0%
SFR31                0      0       0      32        0.0%
BITSFR32             0      0       0      33        0.0%
SFR32                0      0       0      33        0.0%
BITSFR33             0      0       0      34        0.0%
SFR33                0      0       0      34        0.0%
BITSFR34             0      0       0      35        0.0%
SFR34                0      0       0      35        0.0%
BITSFR35             0      0       0      36        0.0%
SFR35                0      0       0      36        0.0%
BITSFR36             0      0       0      37        0.0%
SFR36                0      0       0      37        0.0%
BITSFR37             0      0       0      38        0.0%
SFR37                0      0       0      38        0.0%
BITSFR38             0      0       0      39        0.0%
SFR38                0      0       0      39        0.0%
BITSFR39             0      0       0      40        0.0%
SFR39                0      0       0      40        0.0%
BITSFR40             0      0       0      41        0.0%
SFR40                0      0       0      41        0.0%
BITSFR41             0      0       0      42        0.0%
SFR41                0      0       0      42        0.0%
BITSFR42             0      0       0      43        0.0%
SFR42                0      0       0      43        0.0%
BITSFR43             0      0       0      44        0.0%
SFR43                0      0       0      44        0.0%
BITSFR44             0      0       0      45        0.0%
SFR44                0      0       0      45        0.0%
BITSFR45             0      0       0      46        0.0%
SFR45                0      0       0      46        0.0%
BITSFR46             0      0       0      47        0.0%
SFR46                0      0       0      47        0.0%
BITSFR47             0      0       0      48        0.0%
SFR47                0      0       0      48        0.0%
BITSFR48             0      0       0      49        0.0%
SFR48                0      0       0      49        0.0%
BITSFR49             0      0       0      50        0.0%
SFR49                0      0       0      50        0.0%
BITSFR50             0      0       0      51        0.0%
SFR50                0      0       0      51        0.0%
BITSFR51             0      0       0      52        0.0%
SFR51                0      0       0      52        0.0%
BITSFR52             0      0       0      53        0.0%
SFR52                0      0       0      53        0.0%
BITSFR53             0      0       0      54        0.0%
SFR53                0      0       0      54        0.0%
BITSFR54             0      0       0      55        0.0%
SFR54                0      0       0      55        0.0%
BITSFR55             0      0       0      56        0.0%
SFR55                0      0       0      56        0.0%
BITSFR56             0      0       0      57        0.0%
SFR56                0      0       0      57        0.0%
BITSFR57             0      0       0      58        0.0%
SFR57                0      0       0      58        0.0%
BITSFR58             0      0       0      59        0.0%
SFR58                0      0       0      59        0.0%
BITSFR59             0      0       0      60        0.0%
SFR59                0      0       0      60        0.0%
BITSFR60             0      0       0      61        0.0%
SFR60                0      0       0      61        0.0%
BITSFR61             0      0       0      62        0.0%
SFR61                0      0       0      62        0.0%
BITSFR62             0      0       0      63        0.0%
SFR62                0      0       0      63        0.0%
BITSFR63             0      0       0      64        0.0%
SFR63                0      0       0      64        0.0%


Microchip Technology PIC Macro Assembler V2.00 build -1524193055 
Symbol Table                                                                                   Tue Sep 11 01:44:35 2018

                         ___fldiv@aexp 0069                           ___fldiv@bexp 0068  
               __size_of_Switch_Manage 000F                         Switch_Turnon@i 0071  
                         ___fldiv@sign 0061                            __CFG_CP$OFF 0000  
                  __size_of_I2C_Manage 0098                        Switch_Turnoff@i 0071  
          __end_of_ESC_monitor_Turnoff 0586                 __size_of_Switch_Turnon 001E  
                          __CFG_LVP$ON 0000                                    l131 04F0  
                                  l151 0464                                    l136 0568  
                                  l152 0467                                    l146 044F  
                                  l147 0446                                    l163 0291  
                                  l640 037F                                    l632 0361  
                                  l626 032B                                    l388 01F7  
                                  l591 01CB                                    l567 0092  
                                  l639 0375                                    l588 01A6  
                                  l589 01BE                    __size_of_I2C_Turnon 001C  
                                  _GIE 005F                                    u890 04E6  
                                  u965 045D                                    _isr 0004  
                         __CFG_BORV$LO 0000                                    wreg 0009  
                        __CFG_BBEN$OFF 0000                __size_of_Switch_Turnoff 0013  
                         __CFG_ZCD$OFF 0000                                   l1203 04E8  
                                 l1311 0211                                   l1217 0561  
                                 l1411 012A                                   l1315 023A  
                                 l1405 0111                                   l1413 00F3  
                                 l1431 014C                                   l1415 012F  
                                 l1351 006E                                   l1319 0263  
                                 l1511 039A                                   l1441 0165  
                                 l1345 0063                                   l1451 018E  
                                 l1259 054D                                   l1429 0135  
                                 l1365 0087                                   l1349 0066  
                                 l1439 0163                                   l1465 01C7  
                                 l1385 00C5                                   l1369 008A  
                                 l1545 02B0                                   l1537 029C  
                                 l1379 00B1                                   l1483 033A  
                                 l1477 0323                                   l1581 041F  
                                 l1495 0366                                   l1487 033E  
                                 l1647 04A6                                   l1497 036F  
                                 l1489 034E                                   l1585 0426  
                                 ?_isr 0070                                   u1225 0138  
                                 u1315 017C                                   u1155 00FB  
                                 u1325 0197                                   u1245 0141  
                                 u1165 0102                                   u1405 035B  
                                 u1335 01B0                                   u1185 010B  
                                 u1425 0369                                   u1195 011F  
                                 u1465 0387                                   u1385 0347  
                                 u1625 02D1                                   u1635 02DD  
                                 u1645 02E9                                   u1690 0577  
                                 _PEIE 005E                                   _PMD0 0796  
                                 _PMD1 0797                                   _PMD2 0798  
                                 _PMD3 0799                                   _PMD4 079A  
                                 _PMD5 079B                          __CFG_FCMEN$ON 0000  
                                 _main 0470                                   fsr0h 0005  
                                 fsr1h 0007                                   indf0 0000  
                                 fsr0l 0004                                   indf1 0001  
                                 fsr1l 0006                                   btemp 007E  
                        __CFG_BOREN$ON 0000                           _Switch_State 006E  
                                 start 003C                        ___fldiv@new_exp 0062  
                        __CFG_CSWEN$ON 0000                          __CFG_MCLRE$ON 0000  
                                ??_isr 0070                                  ?_main 0070  
                      __end_of___fldiv 01DC                                  _IOCBN 1F49  
                                _IOCBP 1F48                                  i1l205 0035  
                                i1l206 003A                        __end_of_Turnoff 0543  
                                _TMR0H 059D                                  _TMR0L 059C  
                      __end_of_goToBed 0470                          __CFG_WRTB$OFF 0000  
                        __CFG_WRTC$OFF 0000                    _ESC_period_high_bkp 0040  
                        _Switch_Manage 056B                          _Switch_Turnon 04D6  
                                status 0003                                  wtemp0 007E  
                      __initialization 003E                           __end_of_main 04B0  
                       __CFG_SAFEN$OFF 0000                                 ??_main 007E  
                __end_of_setOscillator 0558                        _I2C_dataCounter 004A  
                       ?_Switch_Manage 0070                           ??_I2C_Manage 0050  
          __size_of_ESC_monitor_Manage 0088                                 _ANSELB 1F43  
                   __CFG_RSTOSC$HFINT1 0000                                 _RB1PPS 1F19  
                               _RB2PPS 1F1A                                 i1l1673 002B  
                               i1l1665 0015                         __CFG_WDTCCS$SC 0000  
                       ?_Switch_Turnon 0070                           ??_I2C_Turnon 0070  
                               _OSCFRQ 0893            __size_of_ESC_monitor_Turnon 0026  
                     __end_of___xxtofl 03A3                         __CFG_PWRTE$OFF 0000  
                               ___flge 01DC                                 _Turnon 0510  
                            ??___fldiv 0058                         __CFG_STVREN$ON 0000  
                            ??_Turnoff 0072                     __end_of_I2C_Manage 030E  
                            ??_goToBed 0076                     __end_of_I2C_Turnon 0510  
                       _Switch_Turnoff 0558                             ___flge@ff1 0070  
                           ___flge@ff2 0074                           ___xxtofl@arg 007A  
                         ___xxtofl@exp 0079                           ___xxtofl@val 0070  
              __end_of__initialization 0045                         __pcstackCOMMON 0070  
                    setOscillator@mode 0070                 __end_of_Switch_Turnoff 056B  
                      ??_Switch_Manage 0070                        ??_Switch_Turnon 0070  
                           __pbssBANK0 0020                             __pmaintext 0470  
                              ?___flge 0070                                ?_Turnon 0070  
                           __pintentry 0004                          _I2C_receiving 0049  
                      ?_Switch_Turnoff 0070                              ?___xxtofl 0070  
         __size_of_ESC_monitor_Turnoff 0006                                _SSP2ADD 0197  
                              _PPSLOCK 1E8F                                _SSP2BUF 0196  
                              _SSP2MSK 0198                         _OSC_Hi_Request 004C  
                      __size_of___flge 009A                                ___fldiv 0049  
                      __size_of_Turnon 001B                         _ESC_period_low 0046  
                              _Turnoff 052B                                _goToBed 042B  
                              __ptext1 056B                                __ptext2 0276  
                              __ptext3 042B                                __ptext4 0543  
                              __ptext5 0510                                __ptext6 04D6  
                              __ptext7 04F4                                __ptext8 04B0  
                              __ptext9 052B                                _maxDodo 006A  
                      __CFG_WRTAPP$OFF 0000                           __size_of_isr 0038  
                           ??___xxtofl 0074                             _duty_cycle 0038  
                      __CFG_WRTSAF$OFF 0000                              _IOCBFbits 1F4A  
                       _OSC_Lo_Request 004D                                clrloop0 057B  
                 end_of_initialization 0045                  __CFG_WDTCPS$WDTCPS_31 0000  
                            _PORTBbits 000D                              _PORTCbits 000E  
                        ___xxtofl@sign 0078             __end_of_ESC_monitor_Manage 042B  
                            _TRISAbits 0012                              _TRISBbits 0013  
                            _TRISCbits 0014                            ___fldiv@grs 0064  
                          ___fldiv@rem 005D                       __CFG_FEXTOSC$OFF 0000  
           __end_of_ESC_monitor_Turnon 04D6                 __size_of_setOscillator 0015  
                       __end_of___flge 0276                         __end_of_Turnon 052B  
                   _ESC_period_low_bkp 003E                    start_initialization 003E  
                          __end_of_isr 003C                        I2C_Manage@bidon 007A  
                     __CFG_LPBOREN$OFF 0000                    _ESC_monitor_Turnoff 0580  
                             ??___flge 0050                               ??_Turnon 0072  
                     ??_Switch_Turnoff 0070                          _setOscillator 0543  
                            ___fldiv@a 0050                              ___fldiv@b 0054  
                            ___latbits 0002                          __pcstackBANK0 0050  
                 ?_ESC_monitor_Turnoff 0070                  __end_of_Switch_Manage 057A  
                    __size_of___xxtofl 0095                       _ESC_period_total 003C  
                __end_of_Switch_Turnon 04F4                              __pnvBANK0 006A  
                             ?___fldiv 0050                               ?_Turnoff 0070  
                     __CFG_PPS1WAY$OFF 0000                               ?_goToBed 0072  
                       ?_setOscillator 0070                               _I2C_data 0020  
                ??_ESC_monitor_Turnoff 0070  _ESC_valid_consecutive_periods_counter 0042  
                     __CFG_WDTE$SWDTEN 0000                               _LATAbits 0018  
                            clear_ram0 057A                               _PIE0bits 0716  
                             _PIR0bits 070C                               _PIR3bits 070F  
                    __CFG_BBSIZE$BB512 0000                              _temps_off 0030  
                           _I2C_Manage 0276                             _I2C_Turnon 04F4  
                         goToBed@timer 0072                     _ESC_monitor_Manage 03A3  
                   _ESC_monitor_Turnon 04B0                    ?_ESC_monitor_Manage 0070  
                     __size_of___fldiv 0193                        ??_setOscillator 0070  
                     __size_of_Turnoff 0018                    ?_ESC_monitor_Turnon 0070  
                      _ESC_period_high 0044                        _ESC_period_over 004B  
                     __size_of_goToBed 0045                               ___xxtofl 030E  
                           _T0CON0bits 059E                             _T0CON1bits 059F  
                             __ptext10 0558                               __ptext11 0580  
                             __ptext12 03A3                               __ptext13 030E  
                             __ptext14 01DC                               __ptext15 0049  
                 ??_ESC_monitor_Manage 007E                           _SSP2CON1bits 019A  
                         _SSP2CON2bits 019B                           _SSP2CON3bits 019C  
                          _OSCCON1bits 088D                   ??_ESC_monitor_Turnon 0070  
                       _turnoffAllowed 0048                          __size_of_main 0040  
                 __CFG_WDTCWS$WDTCWS_7 0000                               goToBed@i 0076  
                             _temps_on 0034                               int$flags 007E  
                         _SSP2STATbits 0199                            ?_I2C_Manage 0070  
                             intlevel1 0000                            ?_I2C_Turnon 0070  
                    __CFG_CLKOUTEN$OFF 0000                            _WDTCON0bits 080C  
                          _WDTCON1bits 080D                 _Switch_Turnoff_Request 004E  
                          _VREGCONbits 0812                  _Switch_Turnon_Request 004F  
